
./t_pageinfo:     file format elf64-x86-64

Contents of section .interp:
 400200 2f6c6962 36342f6c 642d6c69 6e75782d  /lib64/ld-linux-
 400210 7838362d 36342e73 6f2e3200           x86-64.so.2.    
Contents of section .note.ABI-tag:
 40021c 04000000 10000000 01000000 474e5500  ............GNU.
 40022c 00000000 02000000 06000000 20000000  ............ ...
Contents of section .note.gnu.build-id:
 40023c 04000000 14000000 03000000 474e5500  ............GNU.
 40024c 363fd78e faebb46e aea8fad6 253ed1f7  6?.....n....%>..
 40025c 1338685e                             .8h^            
Contents of section .gnu.hash:
 400260 02000000 0f000000 01000000 06000000  ................
 400270 00050000 00000402 0f000000 10000000  ................
 400280 b3a2f712 39f28b1c                    ....9...        
Contents of section .dynsym:
 400288 00000000 00000000 00000000 00000000  ................
 400298 00000000 00000000 68000000 12000000  ........h.......
 4002a8 00000000 00000000 00000000 00000000  ................
 4002b8 5c000000 12000000 00000000 00000000  \...............
 4002c8 00000000 00000000 51000000 12000000  ........Q.......
 4002d8 00000000 00000000 00000000 00000000  ................
 4002e8 01000000 20000000 00000000 00000000  .... ...........
 4002f8 00000000 00000000 26000000 12000000  ........&.......
 400308 00000000 00000000 00000000 00000000  ................
 400318 1a000000 12000000 00000000 00000000  ................
 400328 00000000 00000000 3c000000 12000000  ........<.......
 400338 00000000 00000000 00000000 00000000  ................
 400348 6f000000 12000000 00000000 00000000  o...............
 400358 00000000 00000000 30000000 12000000  ........0.......
 400368 00000000 00000000 00000000 00000000  ................
 400378 57000000 12000000 00000000 00000000  W...............
 400388 00000000 00000000 1f000000 12000000  ................
 400398 00000000 00000000 00000000 00000000  ................
 4003a8 67000000 12000000 00000000 00000000  g...............
 4003b8 00000000 00000000 62000000 12000000  ........b.......
 4003c8 00000000 00000000 00000000 00000000  ................
 4003d8 2b000000 12000000 00000000 00000000  +...............
 4003e8 00000000 00000000 43000000 11001900  ........C.......
 4003f8 90176000 00000000 08000000 00000000  ..`.............
 400408 4a000000 11001900 98176000 00000000  J.........`.....
 400418 08000000 00000000                    ........        
Contents of section .dynstr:
 400420 005f5f67 6d6f6e5f 73746172 745f5f00  .__gmon_start__.
 400430 6c696263 2e736f2e 36006578 69740070  libc.so.6.exit.p
 400440 6572726f 72007075 7473006d 6d617000  error.puts.mmap.
 400450 67657470 61676573 697a6500 6765746f  getpagesize.geto
 400460 7074006f 70746172 67007374 64657272  pt.optarg.stderr
 400470 00696f63 746c0061 746f6900 636c6f73  .ioctl.atoi.clos
 400480 65006f70 656e0066 7072696e 7466005f  e.open.fprintf._
 400490 5f6c6962 635f7374 6172745f 6d61696e  _libc_start_main
 4004a0 00474c49 42435f32 2e322e35 00        .GLIBC_2.2.5.   
Contents of section .gnu.version:
 4004ae 00000200 02000200 00000200 02000200  ................
 4004be 02000200 02000200 02000200 02000200  ................
 4004ce 0200                                 ..              
Contents of section .gnu.version_r:
 4004d0 01000100 10000000 10000000 00000000  ................
 4004e0 751a6909 00000200 81000000 00000000  u.i.............
Contents of section .rela.dyn:
 4004f0 40166000 00000000 06000000 04000000  @.`.............
 400500 00000000 00000000 90176000 00000000  ..........`.....
 400510 05000000 0f000000 00000000 00000000  ................
 400520 98176000 00000000 05000000 10000000  ..`.............
 400530 00000000 00000000                    ........        
Contents of section .rela.plt:
 400538 60166000 00000000 07000000 01000000  `.`.............
 400548 00000000 00000000 68166000 00000000  ........h.`.....
 400558 07000000 02000000 00000000 00000000  ................
 400568 70166000 00000000 07000000 03000000  p.`.............
 400578 00000000 00000000 78166000 00000000  ........x.`.....
 400588 07000000 05000000 00000000 00000000  ................
 400598 80166000 00000000 07000000 06000000  ..`.............
 4005a8 00000000 00000000 88166000 00000000  ..........`.....
 4005b8 07000000 07000000 00000000 00000000  ................
 4005c8 90166000 00000000 07000000 08000000  ..`.............
 4005d8 00000000 00000000 98166000 00000000  ..........`.....
 4005e8 07000000 09000000 00000000 00000000  ................
 4005f8 a0166000 00000000 07000000 0a000000  ..`.............
 400608 00000000 00000000 a8166000 00000000  ..........`.....
 400618 07000000 0b000000 00000000 00000000  ................
 400628 b0166000 00000000 07000000 0c000000  ..`.............
 400638 00000000 00000000 b8166000 00000000  ..........`.....
 400648 07000000 0d000000 00000000 00000000  ................
 400658 c0166000 00000000 07000000 0e000000  ..`.............
 400668 00000000 00000000                    ........        
Contents of section .init:
 400670 4883ec08 e8230100 00e8b201 0000e85d  H....#.........]
 400680 09000048 83c408c3                    ...H....        
Contents of section .plt:
 400688 ff35c20f 2000ff25 c40f2000 0f1f4000  .5.. ..%.. ...@.
 400698 ff25c20f 20006800 000000e9 e0ffffff  .%.. .h.........
 4006a8 ff25ba0f 20006801 000000e9 d0ffffff  .%.. .h.........
 4006b8 ff25b20f 20006802 000000e9 c0ffffff  .%.. .h.........
 4006c8 ff25aa0f 20006803 000000e9 b0ffffff  .%.. .h.........
 4006d8 ff25a20f 20006804 000000e9 a0ffffff  .%.. .h.........
 4006e8 ff259a0f 20006805 000000e9 90ffffff  .%.. .h.........
 4006f8 ff25920f 20006806 000000e9 80ffffff  .%.. .h.........
 400708 ff258a0f 20006807 000000e9 70ffffff  .%.. .h.....p...
 400718 ff25820f 20006808 000000e9 60ffffff  .%.. .h.....`...
 400728 ff257a0f 20006809 000000e9 50ffffff  .%z. .h.....P...
 400738 ff25720f 2000680a 000000e9 40ffffff  .%r. .h.....@...
 400748 ff256a0f 2000680b 000000e9 30ffffff  .%j. .h.....0...
 400758 ff25620f 2000680c 000000e9 20ffffff  .%b. .h..... ...
Contents of section .text:
 400770 31ed4989 d15e4889 e24883e4 f0505449  1.I..^H..H...PTI
 400780 c7c0d00f 400048c7 c1400f40 0048c7c7  ....@.H..@.@.H..
 400790 4f0e4000 e85fffff fff49090 4883ec08  O.@.._......H...
 4007a0 488b0599 0e200048 85c07402 ffd04883  H.... .H..t...H.
 4007b0 c408c390 90909090 90909090 90909090  ................
 4007c0 554889e5 534883ec 08803dd0 0f200000  UH..SH....=.. ..
 4007d0 754bbba0 14600048 8b05ca0f 20004881  uK...`.H.... .H.
 4007e0 eb981460 0048c1fb 034883eb 014839d8  ...`.H...H...H9.
 4007f0 7324660f 1f440000 4883c001 488905a5  s$f..D..H...H...
 400800 0f2000ff 14c59814 6000488b 05970f20  . ......`.H.... 
 400810 004839d8 72e2c605 830f2000 014883c4  .H9.r..... ..H..
 400820 085bc9c3 6666662e 0f1f8400 00000000  .[..fff.........
 400830 48833d70 0c200000 554889e5 7412b800  H.=p. ..UH..t...
 400840 00000048 85c07408 bfa81460 00c9ffe0  ...H..t....`....
 400850 c9c39090 554889e5 897dfc89 75f88b45  ....UH...}..u..E
 400860 f848988b 55fc4863 d24801d2 488d0402  .H..U.Hc.H..H...
 400870 488b04c5 20176000 c9c35548 89e54883  H... .`...UH..H.
 400880 ec204889 7de8488b 45e88b50 78488b45  . H.}.H.E..PxH.E
 400890 e84863d2 4883c208 488b44d0 08488945  .Hc.H...H.D..H.E
 4008a0 f0488b45 e88b4078 4898488b 14c50017  .H.E..@xH.H.....
 4008b0 6000488b 45e8488b 08b85010 40004889  `.H.E.H...P.@.H.
 4008c0 ce4889c7 b8000000 00e8cafd ffff488b  .H............H.
 4008d0 45e88b40 7c85c074 0fbf7110 4000e8e5  E..@|..t..q.@...
 4008e0 fdffffe9 7e010000 b87f1040 004889c7  ....~......@.H..
 4008f0 b8000000 00e89efd ffff4883 7df0000f  ..........H.}...
 400900 95c00fb6 c089c6bf 00000000 e843ffff  .............C..
 400910 ff4889c7 b8000000 00e87afd ffff4883  .H........z...H.
 400920 7df0000f 843c0100 00488b45 f0250001  }....<...H.E.%..
 400930 00004885 c00f95c0 0fb6c089 c6bf0100  ..H.............
 400940 0000e80d ffffff48 89c7b800 000000e8  .......H........
 400950 44fdffff 488b45f0 83e04048 85c00f95  D...H.E...@H....
 400960 c00fb6c0 89c6bf02 000000e8 e4feffff  ................
 400970 4889c7b8 00000000 e81bfdff ff488b45  H............H.E
 400980 f083e020 4885c00f 95c00fb6 c089c6bf  ... H...........
 400990 03000000 e8bbfeff ff4889c7 b8000000  .........H......
 4009a0 00e8f2fc ffff488b 45f083e0 024885c0  ......H.E....H..
 4009b0 0f95c00f b6c089c6 bf040000 00e892fe  ................
 4009c0 ffff4889 c7b80000 0000e8c9 fcffff48  ..H............H
 4009d0 8b45f048 f7d048c1 e83f89c6 bf050000  .E.H..H..?......
 4009e0 00e86efe ffff4889 c7b80000 0000e8a5  ..n...H.........
 4009f0 fcffff48 8b45f025 80000000 4885c00f  ...H.E.%....H...
 400a00 95c00fb6 c089c6bf 06000000 e843feff  .............C..
 400a10 ff4889c7 b8000000 00e87afc ffffb883  .H........z.....
 400a20 10400048 8b55f048 89d64889 c7b80000  .@.H.U.H..H.....
 400a30 0000e861 fcffff48 8b45e88b 5078488b  ...a...H.E..PxH.
 400a40 45e84863 d24883c2 04488b54 d008b897  E.Hc.H...H.T....
 400a50 10400048 89d64889 c7b80000 0000e835  .@.H..H........5
 400a60 fcffffeb 0190c9c3 554889e5 4883ec10  ........UH..H...
 400a70 48897df8 bfb31040 00e84afc ffff488b  H.}....@..J...H.
 400a80 45f88b90 84000000 b8cc1040 0089d648  E..........@...H
 400a90 89c7b800 000000e8 fcfbffff 488b45f8  ............H.E.
 400aa0 8b908000 0000b8e4 10400089 d64889c7  .........@...H..
 400ab0 b8000000 00e8defb ffff488b 45f88b90  ..........H.E...
 400ac0 8c000000 b8fc1040 0089d648 89c7b800  .......@...H....
 400ad0 000000e8 c0fbffff 488b45f8 8b908800  ........H.E.....
 400ae0 0000b814 11400089 d64889c7 b8000000  .....@...H......
 400af0 00e8a2fb ffffbf2b 114000e8 c8fbffff  .......+.@......
 400b00 c9c35548 89e54881 eca00000 0089bd6c  ..UH..H........l
 400b10 ffffffb8 7a084000 48898570 ffffff48  ....z.@.H..p...H
 400b20 8d9570ff ffff8b85 6cffffff be006b00  ..p.....l.....k.
 400b30 0089c7b8 00000000 e87bfbff ff83f8ff  .........{......
 400b40 7535b941 11400048 8b054a0c 2000ba46  u5.A.@.H..J. ..F
 400b50 11400048 89ce4889 c7b80000 0000e8d5  .@.H..H.........
 400b60 fbffffbf 00000000 e8bbfbff ffbf0100  ................
 400b70 0000e861 fbffffbf 60114000 e847fbff  ...a....`.@..G..
 400b80 ff488d85 70ffffff 4889c7e8 eafcffff  .H..p...H.......
 400b90 c9c35548 89e54881 eca00000 0089bd6c  ..UH..H........l
 400ba0 ffffffb8 b0176000 48898570 ffffff48  ......`.H..p...H
 400bb0 8d9570ff ffff8b85 6cffffff be006b00  ..p.....l.....k.
 400bc0 0089c7b8 00000000 e8ebfaff ff83f8ff  ................
 400bd0 7535b941 11400048 8b05ba0b 2000ba46  u5.A.@.H.... ..F
 400be0 11400048 89ce4889 c7b80000 0000e845  .@.H..H........E
 400bf0 fbffffbf 00000000 e82bfbff ffbf0100  .........+......
 400c00 0000e8d1 faffffbf 82114000 e8b7faff  ..........@.....
 400c10 ff488d85 70ffffff 4889c7e8 5afcffff  .H..p...H...Z...
 400c20 488d8570 ffffff48 89c7e839 feffffc9  H..p...H...9....
 400c30 c3554889 e54881ec a0000000 89bd6cff  .UH..H........l.
 400c40 ffff4889 b560ffff ff488b85 60ffffff  ..H..`...H..`...
 400c50 48898570 ffffff48 8d9570ff ffff8b85  H..p...H..p.....
 400c60 6cffffff be006b00 0089c7b8 00000000  l.....k.........
 400c70 e843faff ff83f8ff 7535b941 11400048  .C......u5.A.@.H
 400c80 8b05120b 2000ba46 11400048 89ce4889  .... ..F.@.H..H.
 400c90 c7b80000 0000e89d faffffbf 00000000  ................
 400ca0 e883faff ffbf0100 0000e829 faffffbf  ...........)....
 400cb0 a0114000 e80ffaff ff488d85 70ffffff  ..@......H..p...
 400cc0 4889c7e8 b2fbffff 488d8570 ffffff48  H.......H..p...H
 400cd0 89c7e891 fdffff48 8b9560ff ffffb041  .......H..`....A
 400ce0 8802488b 8560ffff ff0fb600 0fbec8b8  ..H..`..........
 400cf0 c0114000 488b9560 ffffff89 ce4889c7  ..@.H..`.....H..
 400d00 b8000000 00e88ef9 ffff488d 9570ffff  ..........H..p..
 400d10 ff8b856c ffffffbe 006b0000 89c7b800  ...l.....k......
 400d20 000000e8 90f9ffff 83f8ff75 35b94111  ...........u5.A.
 400d30 4000488b 055f0a20 00ba4611 40004889  @.H.._. ..F.@.H.
 400d40 ce4889c7 b8000000 00e8eaf9 ffffbf00  .H..............
 400d50 000000e8 d0f9ffff bf010000 00e876f9  ..............v.
 400d60 ffffbfe0 114000e8 5cf9ffff 488d8570  .....@..\...H..p
 400d70 ffffff48 89c7e8ff faffff48 8d8570ff  ...H.......H..p.
 400d80 ffff4889 c7e8defc ffffc9c3 554889e5  ..H.........UH..
 400d90 4883ec20 897dec89 75e8e869 f9ffff01  H.. .}..u..i....
 400da0 c08945f4 8b45f448 984883c0 0f4883c0  ..E..E.H.H...H..
 400db0 0f48c1e8 0448c1e0 044829c4 4889e048  .H...H...H).H..H
 400dc0 83c00f48 c1e80448 c1e00448 8945f8bf  ...H...H...H.E..
 400dd0 08124000 e8eff8ff ff488d55 f48b45ec  ..@......H.U..E.
 400de0 4889d689 c7e847fe ffffc9c3 554889e5  H.....G.....UH..
 400df0 4883ec20 897dec89 75e8e809 f9ffff01  H.. .}..u.......
 400e00 c0489841 b9000000 0041b8ff ffffffb9  .H.A.....A......
 400e10 02000000 ba030000 004889c6 bf000000  .........H......
 400e20 00e832f9 ffff4889 45f8bf08 124000e8  ..2...H.E....@..
 400e30 94f8ffff 8b45e848 984889c2 480355f8  .....E.H.H..H.U.
 400e40 8b45ec48 89d689c7 e8e4fdff ffc9c355  .E.H...........U
 400e50 4889e548 83ec2089 7dec4889 75e0be02  H..H.. .}.H.u...
 400e60 000000bf 2b124000 b8000000 00e8d6f8  ....+.@.........
 400e70 ffff8945 fc837dfc ff0f8583 000000b9  ...E..}.........
 400e80 41114000 488b050d 092000ba 39124000  A.@.H.... ..9.@.
 400e90 4889ce48 89c7b800 000000e8 98f8ffff  H..H............
 400ea0 bf000000 00e87ef8 ffffbf01 000000e8  ......~.........
 400eb0 24f8ffff 8b45f883 f864740c 83f87374  $....E...dt...st
 400ec0 1f83f863 740eeb3a 8b45fc89 c7e8c0fc  ...ct..:.E......
 400ed0 ffffeb2e 8b45fc89 c7e824fc ffffeb22  .....E....$...."
 400ee0 488b05a9 08200048 89c7e829 f8ffff89  H.... .H...)....
 400ef0 45f48b55 f48b45fc 89d689c7 e88bfeff  E..U..E.........
 400f00 ff90488b 4de08b45 ecba4712 40004889  ..H.M..E..G.@.H.
 400f10 ce89c7e8 d0f7ffff 8945f883 7df8ff75  .........E..}..u
 400f20 938b45fc 89c7e87d f7ffffb8 00000000  ..E....}........
 400f30 c9c39090 90909090 90909090 90909090  ................
 400f40 48896c24 d84c8964 24e0488d 2d330520  H.l$.L.d$.H.-3. 
 400f50 004c8d25 2c052000 4c896c24 e84c8974  .L.%,. .L.l$.L.t
 400f60 24f04c89 7c24f848 895c24d0 4883ec38  $.L.|$.H.\$.H..8
 400f70 4c29e541 89fd4989 f648c1fd 034989d7  L).A..I..H...I..
 400f80 e8ebf6ff ff4885ed 741c31db 0f1f4000  .....H..t.1...@.
 400f90 4c89fa4c 89f64489 ef41ff14 dc4883c3  L..L..D..A...H..
 400fa0 014839eb 72ea488b 5c240848 8b6c2410  .H9.r.H.\$.H.l$.
 400fb0 4c8b6424 184c8b6c 24204c8b 7424284c  L.d$.L.l$ L.t$(L
 400fc0 8b7c2430 4883c438 c30f1f80 00000000  .|$0H..8........
 400fd0 f3c39090 90909090 90909090 90909090  ................
 400fe0 554889e5 534883ec 08488b05 98042000  UH..SH...H.... .
 400ff0 4883f8ff 7419bb88 1460000f 1f440000  H...t....`...D..
 401000 4883eb08 ffd0488b 034883f8 ff75f148  H.....H..H...u.H
 401010 83c4085b c9c39090                    ...[....        
Contents of section .fini:
 401018 4883ec08 e89ff7ff ff4883c4 08c3      H........H....  
Contents of section .rodata:
 401028 01000200 00000000 00000000 00000000  ................
 401038 4e2f4120 00312047 42003220 4d420034  N/A .1 GB.2 MB.4
 401048 204b4200 00000000 76697274 75616c20   KB.....virtual 
 401058 61646472 6573733a 20256c78 202d2d20  address: %lx -- 
 401068 73697a65 3a202573 003a3a20 4e4f204d  size: %s.:: NO M
 401078 41505049 4e470020 2020003a 3a20666c  APPING.   .:: fl
 401088 6167733a 20307825 6c78203a 3a200070  ags: 0x%lx :: .p
 401098 68797369 63616c20 70616765 20616464  hysical page add
 4010a8 72657373 3a20256c 780a003c 3c3c3c3c  ress: %lx..<<<<<
 4010b8 20464155 4c545320 53544152 54203e3e   FAULTS START >>
 4010c8 3e3e3e00 4641554c 54533a20 70726576  >>>.FAULTS: prev
 4010d8 5f6d696e 6f723a20 25640a00 4641554c  _minor: %d..FAUL
 4010e8 54533a20 70726576 5f6d616a 6f723a20  TS: prev_major: 
 4010f8 25640a00 4641554c 54533a20 6375725f  %d..FAULTS: cur_
 401108 6d696e6f 723a2020 25640a00 4641554c  minor:  %d..FAUL
 401118 54533a20 6375725f 6d616a6f 723a2025  TS: cur_major: %
 401128 640a003c 3c3c3c20 4641554c 54532045  d..<<<< FAULTS E
 401138 4e44203e 3e3e3e3e 0025733a 2000696f  ND >>>>>.%s: .io
 401148 63746c28 29206661 696c6564 202d2d20  ctl() failed -- 
 401158 64617461 00000000 3d3d3d3d 3d3d3d3d  data....========
 401168 20434f44 45205345 474d454e 54203d3d   CODE SEGMENT ==
 401178 3d3d3d3d 3d3d3d3d 3d003d3d 3d3d3d3d  =========.======
 401188 20444154 41205345 474d454e 54203d3d   DATA SEGMENT ==
 401198 3d3d3d3d 3d3d3d00 2d2d2d2d 2d2d2049  =======.------ I
 4011a8 4e495449 414c2053 54415445 202d2d2d  NITIAL STATE ---
 4011b8 2d2d2d2d 2d2d2d00 2b2b2b2b 2b205772  -------.+++++ Wr
 4011c8 69747465 6e202563 20746f20 2570202b  itten %c to %p +
 4011d8 2b2b2b2b 2b0a0000 2d2d2d2d 2d2d204f  +++++...------ O
 4011e8 4e205752 49544520 41434345 5353202d  N WRITE ACCESS -
 4011f8 2d2d2d2d 2d2d2d2d 2d000000 00000000  ---------.......
 401208 3d3d3d3d 3d3d3d3d 20535441 434b2053  ======== STACK S
 401218 45474d45 4e54203d 3d3d3d3d 3d3d3d3d  EGMENT =========
 401228 3d3d002f 6465762f 70616765 696e666f  ==./dev/pageinfo
 401238 006f7065 6e282920 6661696c 65640063  .open() failed.c
 401248 64733a00 70726573 20005052 45532000  ds:.pres .PRES .
 401258 676c6f62 2000474c 4f422000 64697274  glob .GLOB .dirt
 401268 20004449 52542000 61636320 20004143   .DIRT .acc  .AC
 401278 43202000 77726974 20005752 49542000  C  .writ .WRIT .
 401288 65786563 20004558 45432000 68756765  exec .EXEC .huge
 401298 20004855 47452000                     .HUGE .        
Contents of section .eh_frame_hdr:
 4012a0 011b033b 64000000 0b000000 b4f5ffff  ...;d...........
 4012b0 80000000 daf5ffff a0000000 c8f7ffff  ................
 4012c0 c0000000 62f8ffff e0000000 f2f8ffff  ....b...........
 4012d0 00010000 91f9ffff 20010000 ecfaffff  ........ .......
 4012e0 40010000 4cfbffff 60010000 affbffff  @...L...`.......
 4012f0 80010000 a0fcffff a0010000 30fdffff  ............0...
 401300 c8010000                             ....            
Contents of section .eh_frame:
 401308 14000000 00000000 017a5200 01781001  .........zR..x..
 401318 1b0c0708 90010000 1c000000 1c000000  ................
 401328 2cf5ffff 26000000 00410e10 8602430d  ,...&....A....C.
 401338 06610c07 08000000 1c000000 3c000000  .a..........<...
 401348 32f5ffff ee010000 00410e10 8602430d  2........A....C.
 401358 0603e901 0c070800 1c000000 5c000000  ............\...
 401368 00f7ffff 9a000000 00410e10 8602430d  .........A....C.
 401378 0602950c 07080000 1c000000 7c000000  ............|...
 401388 7af7ffff 90000000 00410e10 8602430d  z........A....C.
 401398 06028b0c 07080000 1c000000 9c000000  ................
 4013a8 eaf7ffff 9f000000 00410e10 8602430d  .........A....C.
 4013b8 06029a0c 07080000 1c000000 bc000000  ................
 4013c8 69f8ffff 5b010000 00410e10 8602430d  i...[....A....C.
 4013d8 06035601 0c070800 1c000000 dc000000  ..V.............
 4013e8 a4f9ffff 60000000 00410e10 8602430d  ....`....A....C.
 4013f8 06025b0c 07080000 1c000000 fc000000  ..[.............
 401408 e4f9ffff 63000000 00410e10 8602430d  ....c....A....C.
 401418 06025e0c 07080000 1c000000 1c010000  ..^.............
 401428 27faffff e3000000 00410e10 8602430d  '........A....C.
 401438 0602de0c 07080000 24000000 3c010000  ........$...<...
 401448 f8faffff 89000000 00518c05 86065f0e  .........Q...._.
 401458 4083078f 028e038d 0402580e 08000000  @.........X.....
 401468 14000000 64010000 60fbffff 02000000  ....d...`.......
 401478 00000000 00000000 00000000           ............    
Contents of section .ctors:
 601488 ffffffff ffffffff 00000000 00000000  ................
Contents of section .dtors:
 601498 ffffffff ffffffff 00000000 00000000  ................
Contents of section .jcr:
 6014a8 00000000 00000000                    ........        
Contents of section .dynamic:
 6014b0 01000000 00000000 10000000 00000000  ................
 6014c0 0c000000 00000000 70064000 00000000  ........p.@.....
 6014d0 0d000000 00000000 18104000 00000000  ..........@.....
 6014e0 f5feff6f 00000000 60024000 00000000  ...o....`.@.....
 6014f0 05000000 00000000 20044000 00000000  ........ .@.....
 601500 06000000 00000000 88024000 00000000  ..........@.....
 601510 0a000000 00000000 8d000000 00000000  ................
 601520 0b000000 00000000 18000000 00000000  ................
 601530 15000000 00000000 00000000 00000000  ................
 601540 03000000 00000000 48166000 00000000  ........H.`.....
 601550 02000000 00000000 38010000 00000000  ........8.......
 601560 14000000 00000000 07000000 00000000  ................
 601570 17000000 00000000 38054000 00000000  ........8.@.....
 601580 07000000 00000000 f0044000 00000000  ..........@.....
 601590 08000000 00000000 48000000 00000000  ........H.......
 6015a0 09000000 00000000 18000000 00000000  ................
 6015b0 feffff6f 00000000 d0044000 00000000  ...o......@.....
 6015c0 ffffff6f 00000000 01000000 00000000  ...o............
 6015d0 f0ffff6f 00000000 ae044000 00000000  ...o......@.....
 6015e0 00000000 00000000 00000000 00000000  ................
 6015f0 00000000 00000000 00000000 00000000  ................
 601600 00000000 00000000 00000000 00000000  ................
 601610 00000000 00000000 00000000 00000000  ................
 601620 00000000 00000000 00000000 00000000  ................
 601630 00000000 00000000 00000000 00000000  ................
Contents of section .got:
 601640 00000000 00000000                    ........        
Contents of section .got.plt:
 601648 b0146000 00000000 00000000 00000000  ..`.............
 601658 00000000 00000000 9e064000 00000000  ..........@.....
 601668 ae064000 00000000 be064000 00000000  ..@.......@.....
 601678 ce064000 00000000 de064000 00000000  ..@.......@.....
 601688 ee064000 00000000 fe064000 00000000  ..@.......@.....
 601698 0e074000 00000000 1e074000 00000000  ..@.......@.....
 6016a8 2e074000 00000000 3e074000 00000000  ..@.....>.@.....
 6016b8 4e074000 00000000 5e074000 00000000  N.@.....^.@.....
Contents of section .data:
 6016e0 00000000 00000000 00000000 00000000  ................
 6016f0 00000000 00000000 00000000 00000000  ................
 601700 38104000 00000000 3d104000 00000000  8.@.....=.@.....
 601710 42104000 00000000 47104000 00000000  B.@.....G.@.....
 601720 4c124000 00000000 52124000 00000000  L.@.....R.@.....
 601730 58124000 00000000 5e124000 00000000  X.@.....^.@.....
 601740 64124000 00000000 6a124000 00000000  d.@.....j.@.....
 601750 70124000 00000000 76124000 00000000  p.@.....v.@.....
 601760 7c124000 00000000 82124000 00000000  |.@.......@.....
 601770 88124000 00000000 8e124000 00000000  ..@.......@.....
 601780 94124000 00000000 9a124000 00000000  ..@.......@.....
Contents of section .comment:
 0000 4743433a 2028474e 55292034 2e352e31  GCC: (GNU) 4.5.1
 0010 20323031 30303932 34202852 65642048   20100924 (Red H
 0020 61742034 2e352e31 2d342900           at 4.5.1-4).    
Contents of section .debug_aranges:
 0000 2c000000 02000000 00000800 00000000  ,...............
 0010 54084000 00000000 de060000 00000000  T.@.............
 0020 00000000 00000000 00000000 00000000  ................
Contents of section .debug_pubnames:
 0000 9c000000 02000000 0000a506 0000c803  ................
 0010 00007061 7273655f 76610017 04000070  ..parse_va.....p
 0020 72696e74 5f666175 6c747300 45040000  rint_faults.E...
 0030 74657374 5f636f64 65736567 00820400  test_codeseg....
 0040 00746573 745f6461 74617365 6700bf04  .test_dataseg...
 0050 0000746f 7563685f 6d656d00 0b050000  ..touch_mem.....
 0060 74657374 5f737461 636b7365 67006205  test_stackseg.b.
 0070 00007465 73745f6d 6d617000 ab050000  ..test_mmap.....
 0080 6d61696e 00780600 00646174 61008e06  main.x...data...
 0090 00007061 67655f73 697a6500 00000000  ..page_size.....
Contents of section .debug_info:
 0000 a1060000 03000000 00000801 63000000  ............c...
 0010 01cd0200 00f20200 00540840 00000000  .........T.@....
 0020 00320f40 00000000 00000000 00024e00  .2.@..........N.
 0030 000002d3 38000000 03080744 01000004  ....8......D....
 0040 0405696e 74000304 07490100 00030805  ..int....I......
 0050 e0000000 030805db 00000003 01080f01  ................
 0060 00000302 07160200 00030106 11010000  ................
 0070 030205ca 00000002 6b020000 038d4d00  ........k.....M.
 0080 00000252 02000003 8e4d0000 00050806  ...R.....M......
 0090 08950000 00030106 18010000 0308073f  ...............?
 00a0 01000007 16000000 d8040f01 3f020000  ............?...
 00b0 08b70000 00041001 3f000000 00089d01  ........?.......
 00c0 00000415 018f0000 00080871 01000004  ...........q....
 00d0 16018f00 00001008 87020000 0417018f  ................
 00e0 00000018 08850100 00041801 8f000000  ................
 00f0 20085500 00000419 018f0000 00280844   .U..........(.D
 0100 02000004 1a018f00 00003008 8a000000  ..........0.....
 0110 041b018f 00000038 08b40100 00041c01  .......8........
 0120 8f000000 c00008b1 02000004 1e018f00  ................
 0130 0000c800 08010200 00041f01 8f000000  ................
 0140 d000083c 00000004 20018f00 0000d800  ...<.... .......
 0150 08a40000 00042201 77020000 e0000864  ......".w......d
 0160 02000004 24017d02 0000e800 085c0200  ....$.}......\..
 0170 00042601 3f000000 f0000879 02000004  ..&.?......y....
 0180 2a013f00 0000f400 08230100 00042c01  *.?......#....,.
 0190 77000000 f80008f9 00000004 30016200  w...........0.b.
 01a0 00008001 089c0200 00043101 69000000  ..........1.i...
 01b0 82010861 01000004 32018302 00008301  ...a....2.......
 01c0 08f30000 00043601 93020000 88010827  ......6........'
 01d0 01000004 3f018200 00009001 08df0100  ....?...........
 01e0 00044801 8d000000 9801087e 01000004  ..H........~....
 01f0 49018d00 0000a001 08ec0100 00044a01  I.............J.
 0200 8d000000 a80108f3 01000004 4b018d00  ............K...
 0210 0000b001 08fa0100 00044c01 2d000000  ..........L.-...
 0220 b8010881 02000004 4e013f00 0000c001  ........N.?.....
 0230 08940100 00045001 99020000 c4010009  ......P.........
 0240 e7020000 04b40a56 01000018 04ba7702  .......V......w.
 0250 00000bd9 01000004 bb770200 00000b1d  .........w......
 0260 01000004 bc7d0200 00080b05 01000004  .....}..........
 0270 c03f0000 00100006 08460200 000608a3  .?.......F......
 0280 0000000c 95000000 93020000 0d380000  .............8..
 0290 00000006 083f0200 000c9500 0000a902  .....?..........
 02a0 00000d38 00000013 000ad001 00009005  ...8............
 02b0 374e0300 000e7661 00053838 00000000  7N....va..88....
 02c0 0b290000 0005394e 03000008 0b950200  .)....9N........
 02d0 00053a4e 03000028 0bb80000 00053b4e  ..:N...(......;N
 02e0 030000c8 000e6372 3300053c 38000000  ......cr3..<8...
 02f0 e8000e70 67640005 3d380000 00f0000b  ...pgd..=8......
 0300 73020000 053e3f00 0000f800 0b490000  s....>?......I..
 0310 00053f3f 000000fc 000b3000 00000540  ..??......0....@
 0320 3f000000 80010bbe 00000005 413f0000  ?...........A?..
 0330 0084010b c0010000 05423f00 00008801  .........B?.....
 0340 0b2f0100 0005433f 0000008c 01000c38  ./....C?.......8
 0350 0000005e 0300000d 38000000 03000f0c  ...^....8.......
 0360 00000001 1d018f00 00005408 40000000  ..........T.@...
 0370 00007a08 40000000 0000019c b2030000  ..z.@...........
 0380 10bf0200 00011d3f 00000002 916c10ad  .......?.....l..
 0390 00000001 1d3f0000 00029168 11b30000  .....?.....h....
 03a0 00011fb2 03000009 03201760 00000000  ......... .`....
 03b0 00000c8f 000000c8 0300000d 38000000  ............8...
 03c0 060d3800 00000100 1201c402 0000012c  ..8............,
 03d0 017a0840 00000000 00680a40 00000000  .z.@.....h.@....
 03e0 00019c11 04000010 d4010000 012c1104  .............,..
 03f0 00000291 58137661 00012e38 00000002  ....X.va...8....
 0400 916811b8 00000001 2f380000 00029160  .h....../8.....`
 0410 000608a9 02000012 01970000 00015001  ..............P.
 0420 680a4000 00000000 020b4000 00000000  h.@.......@.....
 0430 019c4504 000010d4 01000001 50110400  ..E.........P...
 0440 00029168 00120137 02000001 5c01020b  ...h...7....\...
 0450 40000000 0000920b 40000000 0000019c  @.......@.......
 0460 82040000 14666400 015c3f00 00000391  .....fd..\?.....
 0470 dc7e11d4 01000001 5ea90200 000391e0  .~......^.......
 0480 7e001201 da020000 016b0192 0b400000  ~........k...@..
 0490 00000031 0c400000 00000001 9cbf0400  ...1.@..........
 04a0 00146664 00016b3f 00000003 91dc7e11  ..fd..k?......~.
 04b0 d4010000 016da902 00000391 e07e0012  .....m.......~..
 04c0 01aa0100 00017901 310c4000 00000000  ......y.1.@.....
 04d0 8c0d4000 00000000 019c0b05 00001466  ..@............f
 04e0 64000179 3f000000 0391dc7e 10070000  d..y?......~....
 04f0 0001798f 00000003 91d07e11 d4010000  ..y.......~.....
 0500 017ba902 00000391 e07e0012 01290200  .{.......~...)..
 0510 00019b01 8c0d4000 00000000 ec0d4000  ......@.......@.
 0520 00000000 019c6205 00001466 6400019b  ......b....fd...
 0530 3f000000 02915c10 28010000 019b3f00  ?.....\.(.....?.
 0540 00000291 5811e601 0000019d 3f000000  ....X.......?...
 0550 02916411 6b010000 019e8f00 00000291  ..d.k...........
 0560 68001201 e9000000 01a801ec 0d400000  h............@..
 0570 0000004f 0e400000 00000001 9cab0500  ...O.@..........
 0580 00146664 0001a83f 00000002 915c1028  ..fd...?.....\.(
 0590 01000001 a83f0000 00029158 136d656d  .....?.....X.mem
 05a0 0001aa8f 00000002 91680015 01cb0100  .........h......
 05b0 0001b301 3f000000 4f0e4000 00000000  ....?...O.@.....
 05c0 320f4000 00000000 019c1406 0000103a  2.@............:
 05d0 01000001 b33f0000 0002915c 100a0100  .....?.....\....
 05e0 0001b314 06000002 91501366 640001b5  .........P.fd...
 05f0 3f000000 02916c11 ab020000 01b63f00  ?.....l.......?.
 0600 00000291 64136f70 740001b6 3f000000  ....d.opt...?...
 0610 02916800 06088f00 000016d4 00000006  ..h.............
 0620 a77d0200 00010116 00000000 073b8f00  .}...........;..
 0630 00000101 16110200 00011a3f 00000001  ...........?....
 0640 010c8f00 00005106 00000d38 00000003  ......Q....8....
 0650 00161f00 0000011b 41060000 010116d4  ........A.......
 0660 00000006 a77d0200 00010116 00000000  .....}..........
 0670 073b8f00 00000101 17110200 00011a3f  .;.............?
 0680 00000001 0903b017 60000000 0000171f  ........`.......
 0690 00000001 1b410600 00010903 00176000  .....A........`.
 06a0 00000000 00                          .....           
Contents of section .debug_abbrev:
 0000 01110125 0e130b03 0e1b0e11 01120110  ...%............
 0010 06000002 1600030e 3a0b3b0b 49130000  ........:.;.I...
 0020 0324000b 0b3e0b03 0e000004 24000b0b  .$...>......$...
 0030 3e0b0308 0000050f 000b0b00 00060f00  >...............
 0040 0b0b4913 00000713 01030e0b 0b3a0b3b  ..I..........:.;
 0050 05011300 00080d00 030e3a0b 3b054913  ..........:.;.I.
 0060 380d0000 09160003 0e3a0b3b 0b00000a  8........:.;....
 0070 1301030e 0b0b3a0b 3b0b0113 00000b0d  ......:.;.......
 0080 00030e3a 0b3b0b49 13380d00 000c0101  ...:.;.I.8......
 0090 49130113 00000d21 0049132f 0b00000e  I......!.I./....
 00a0 0d000308 3a0b3b0b 4913380d 00000f2e  ....:.;.I.8.....
 00b0 01030e3a 0b3b0b27 0c491311 01120140  ...:.;.'.I.....@
 00c0 0a011300 00100500 030e3a0b 3b0b4913  ..........:.;.I.
 00d0 020a0000 11340003 0e3a0b3b 0b491302  .....4...:.;.I..
 00e0 0a000012 2e013f0c 030e3a0b 3b0b270c  ......?...:.;.'.
 00f0 11011201 400a0113 00001334 0003083a  ....@......4...:
 0100 0b3b0b49 13020a00 00140500 03083a0b  .;.I..........:.
 0110 3b0b4913 020a0000 152e013f 0c030e3a  ;.I........?...:
 0120 0b3b0b27 0c491311 01120140 0a011300  .;.'.I.....@....
 0130 00163400 030e3a0b 3b0b4913 3f0c3c0c  ..4...:.;.I.?.<.
 0140 00001734 00030e3a 0b3b0b49 133f0c02  ...4...:.;.I.?..
 0150 0a000000                             ....            
Contents of section .debug_line:
 0000 7a010000 0200c300 00000101 fb0e0d00  z...............
 0010 01010101 00000001 0000012f 7573722f  .........../usr/
 0020 6c69622f 6763632f 7838365f 36342d72  lib/gcc/x86_64-r
 0030 65646861 742d6c69 6e75782f 342e352e  edhat-linux/4.5.
 0040 312f696e 636c7564 65002f75 73722f69  1/include./usr/i
 0050 6e636c75 64652f62 69747300 2f757372  nclude/bits./usr
 0060 2f696e63 6c756465 002e2e2f 696e636c  /include.../incl
 0070 75646500 00745f70 61676569 6e666f2e  ude..t_pageinfo.
 0080 63000000 00737464 6465662e 68000100  c....stddef.h...
 0090 00747970 65732e68 00020000 6c696269  .types.h....libi
 00a0 6f2e6800 03000070 61676569 6e666f2e  o.h....pageinfo.
 00b0 68000400 00737464 696f2e68 00030000  h....stdio.h....
 00c0 6765746f 70742e68 00030000 00000902  getopt.h........
 00d0 54084000 00000000 031c0103 0c9e0891  T.@.............
 00e0 31bc08a0 022d13ad 9f5b0822 022419b0  1....-...[.".$..
 00f0 022b1302 29130229 13022913 02241302  .+..)..)..)..$..
 0100 2b140884 0374022e 01030d20 31bba008  +....t..... 1...
 0110 c908c908 c908ca9f 310817bc 02231302  ........1....#..
 0120 35149fe5 310815bc 02231302 35149fe5  5...1....#..5...
 0130 e5310879 d8022313 0235149f e5e9b202  .1.y..#..5......
 0140 28140223 13023514 9fe5e531 da9f022b  (..#..5....1...+
 0150 14a00813 31d90230 14a00883 31e808f3  ....1..0....1...
 0160 02351508 3e9f319f 310821e5 00020401  .5..>.1.1.!.....
 0170 03732003 1208d6a0 59020200 0101      .s .....Y.....  
Contents of section .debug_str:
 0000 6f707461 72670061 64647200 70666c61  optarg.addr.pfla
 0010 675f7661 6c005f49 4f5f4649 4c450070  g_val._IO_FILE.p
 0020 6167655f 73697a65 0076615f 64697200  age_size.va_dir.
 0030 70726576 5f6d616a 666c7400 5f494f5f  prev_majflt._IO_
 0040 73617665 5f656e64 006e6f6e 65007369  save_end.none.si
 0050 7a655f74 005f494f 5f777269 74655f70  ze_t._IO_write_p
 0060 74720047 4e552043 20342e35 2e312032  tr.GNU C 4.5.1 2
 0070 30313030 39323420 28526564 20486174  0100924 (Red Hat
 0080 20342e35 2e312d34 29005f49 4f5f6275   4.5.1-4)._IO_bu
 0090 665f6261 73650070 72696e74 5f666175  f_base.print_fau
 00a0 6c747300 5f6d6172 6b657273 0076616c  lts._markers.val
 00b0 75650070 6167655f 666c6167 73007072  ue.page_flags.pr
 00c0 65765f6d 696e666c 74007368 6f727420  ev_minflt.short 
 00d0 696e7400 73746465 7272006c 6f6e6720  int.stderr.long 
 00e0 6c6f6e67 20696e74 00746573 745f6d6d  long int.test_mm
 00f0 6170005f 6c6f636b 005f6375 725f636f  ap._lock._cur_co
 0100 6c756d6e 005f706f 73006172 67760075  lumn._pos.argv.u
 0110 6e736967 6e656420 63686172 005f7362  nsigned char._sb
 0120 7566005f 6f6c645f 6f666673 65740063  uf._old_offset.c
 0130 75725f6d 696e666c 74006172 6763006c  ur_minflt.argc.l
 0140 6f6e6720 6c6f6e67 20756e73 69676e65  ong long unsigne
 0150 6420696e 74005f49 4f5f6d61 726b6572  d int._IO_marker
 0160 005f7368 6f727462 75660073 7461636b  ._shortbuf.stack
 0170 005f494f 5f726561 645f656e 64005f5f  ._IO_read_end.__
 0180 70616432 005f494f 5f777269 74655f62  pad2._IO_write_b
 0190 61736500 5f756e75 73656432 005f494f  ase._unused2._IO
 01a0 5f726561 645f7074 7200746f 7563685f  _read_ptr.touch_
 01b0 6d656d00 5f494f5f 6275665f 656e6400  mem._IO_buf_end.
 01c0 6375725f 6d616a66 6c74006d 61696e00  cur_majflt.main.
 01d0 70616765 696e666f 005f6e65 7874005f  pageinfo._next._
 01e0 5f706164 31006173 697a6500 5f5f7061  _pad1.asize.__pa
 01f0 6433005f 5f706164 34005f5f 70616435  d3.__pad4.__pad5
 0200 005f494f 5f626163 6b75705f 62617365  ._IO_backup_base
 0210 00646174 61007368 6f727420 756e7369  .data.short unsi
 0220 676e6564 20696e74 00746573 745f7374  gned int.test_st
 0230 61636b73 65670074 6573745f 636f6465  ackseg.test_code
 0240 73656700 5f494f5f 77726974 655f656e  seg._IO_write_en
 0250 64005f5f 6f666636 345f7400 5f66696c  d.__off64_t._fil
 0260 656e6f00 5f636861 696e005f 5f6f6666  eno._chain.__off
 0270 5f74006c 6576656c 005f666c 61677332  _t.level._flags2
 0280 005f6d6f 6465005f 494f5f72 6561645f  ._mode._IO_read_
 0290 62617365 0070615f 64697200 5f767461  base.pa_dir._vta
 02a0 626c655f 6f666673 65740073 6f666673  ble_offset.soffs
 02b0 005f494f 5f736176 655f6261 73650066  ._IO_save_base.f
 02c0 6c616700 70617273 655f7661 00745f70  lag.parse_va.t_p
 02d0 61676569 6e666f2e 63007465 73745f64  ageinfo.c.test_d
 02e0 61746173 6567005f 494f5f6c 6f636b5f  ataseg._IO_lock_
 02f0 74002f68 6f6d652f 61646d69 6e2f7372  t./home/admin/sr
 0300 632f6472 69766572 2f6d7964 7276322f  c/driver/mydrv2/
 0310 74657374 00                          test.           
Contents of section .debug_pubtypes:
 0000 6b000000 02000000 0000a506 00002d00  k.............-.
 0010 00007369 7a655f74 00770000 005f5f6f  ..size_t.w...__o
 0020 66665f74 00820000 005f5f6f 66663634  ff_t.....__off64
 0030 5f74003f 0200005f 494f5f6c 6f636b5f  _t.?..._IO_lock_
 0040 74004602 00005f49 4f5f6d61 726b6572  t.F..._IO_marker
 0050 00a30000 005f494f 5f46494c 4500a902  ....._IO_FILE...
 0060 00007061 6765696e 666f0000 000000    ..pageinfo..... 

Disassembly of section .init:

0000000000400670 <_init>:
_init():
  400670:	48 83 ec 08          	sub    rsp,0x8
  400674:	e8 23 01 00 00       	call   40079c <call_gmon_start>
  400679:	e8 b2 01 00 00       	call   400830 <frame_dummy>
  40067e:	e8 5d 09 00 00       	call   400fe0 <__do_global_ctors_aux>
  400683:	48 83 c4 08          	add    rsp,0x8
  400687:	c3                   	ret    

Disassembly of section .plt:

0000000000400688 <printf@plt-0x10>:
  400688:	ff 35 c2 0f 20 00    	push   QWORD PTR [rip+0x200fc2]        # 601650 <_GLOBAL_OFFSET_TABLE_+0x8>
  40068e:	ff 25 c4 0f 20 00    	jmp    QWORD PTR [rip+0x200fc4]        # 601658 <_GLOBAL_OFFSET_TABLE_+0x10>
  400694:	0f 1f 40 00          	nop    DWORD PTR [rax+0x0]

0000000000400698 <printf@plt>:
  400698:	ff 25 c2 0f 20 00    	jmp    QWORD PTR [rip+0x200fc2]        # 601660 <_GLOBAL_OFFSET_TABLE_+0x18>
  40069e:	68 00 00 00 00       	push   0x0
  4006a3:	e9 e0 ff ff ff       	jmp    400688 <_init+0x18>

00000000004006a8 <close@plt>:
  4006a8:	ff 25 ba 0f 20 00    	jmp    QWORD PTR [rip+0x200fba]        # 601668 <_GLOBAL_OFFSET_TABLE_+0x20>
  4006ae:	68 01 00 00 00       	push   0x1
  4006b3:	e9 d0 ff ff ff       	jmp    400688 <_init+0x18>

00000000004006b8 <ioctl@plt>:
  4006b8:	ff 25 b2 0f 20 00    	jmp    QWORD PTR [rip+0x200fb2]        # 601670 <_GLOBAL_OFFSET_TABLE_+0x28>
  4006be:	68 02 00 00 00       	push   0x2
  4006c3:	e9 c0 ff ff ff       	jmp    400688 <_init+0x18>

00000000004006c8 <puts@plt>:
  4006c8:	ff 25 aa 0f 20 00    	jmp    QWORD PTR [rip+0x200faa]        # 601678 <_GLOBAL_OFFSET_TABLE_+0x30>
  4006ce:	68 03 00 00 00       	push   0x3
  4006d3:	e9 b0 ff ff ff       	jmp    400688 <_init+0x18>

00000000004006d8 <exit@plt>:
  4006d8:	ff 25 a2 0f 20 00    	jmp    QWORD PTR [rip+0x200fa2]        # 601680 <_GLOBAL_OFFSET_TABLE_+0x38>
  4006de:	68 04 00 00 00       	push   0x4
  4006e3:	e9 a0 ff ff ff       	jmp    400688 <_init+0x18>

00000000004006e8 <getopt@plt>:
  4006e8:	ff 25 9a 0f 20 00    	jmp    QWORD PTR [rip+0x200f9a]        # 601688 <_GLOBAL_OFFSET_TABLE_+0x40>
  4006ee:	68 05 00 00 00       	push   0x5
  4006f3:	e9 90 ff ff ff       	jmp    400688 <_init+0x18>

00000000004006f8 <__libc_start_main@plt>:
  4006f8:	ff 25 92 0f 20 00    	jmp    QWORD PTR [rip+0x200f92]        # 601690 <_GLOBAL_OFFSET_TABLE_+0x48>
  4006fe:	68 06 00 00 00       	push   0x6
  400703:	e9 80 ff ff ff       	jmp    400688 <_init+0x18>

0000000000400708 <getpagesize@plt>:
  400708:	ff 25 8a 0f 20 00    	jmp    QWORD PTR [rip+0x200f8a]        # 601698 <_GLOBAL_OFFSET_TABLE_+0x50>
  40070e:	68 07 00 00 00       	push   0x7
  400713:	e9 70 ff ff ff       	jmp    400688 <_init+0x18>

0000000000400718 <atoi@plt>:
  400718:	ff 25 82 0f 20 00    	jmp    QWORD PTR [rip+0x200f82]        # 6016a0 <_GLOBAL_OFFSET_TABLE_+0x58>
  40071e:	68 08 00 00 00       	push   0x8
  400723:	e9 60 ff ff ff       	jmp    400688 <_init+0x18>

0000000000400728 <perror@plt>:
  400728:	ff 25 7a 0f 20 00    	jmp    QWORD PTR [rip+0x200f7a]        # 6016a8 <_GLOBAL_OFFSET_TABLE_+0x60>
  40072e:	68 09 00 00 00       	push   0x9
  400733:	e9 50 ff ff ff       	jmp    400688 <_init+0x18>

0000000000400738 <fprintf@plt>:
  400738:	ff 25 72 0f 20 00    	jmp    QWORD PTR [rip+0x200f72]        # 6016b0 <_GLOBAL_OFFSET_TABLE_+0x68>
  40073e:	68 0a 00 00 00       	push   0xa
  400743:	e9 40 ff ff ff       	jmp    400688 <_init+0x18>

0000000000400748 <open@plt>:
  400748:	ff 25 6a 0f 20 00    	jmp    QWORD PTR [rip+0x200f6a]        # 6016b8 <_GLOBAL_OFFSET_TABLE_+0x70>
  40074e:	68 0b 00 00 00       	push   0xb
  400753:	e9 30 ff ff ff       	jmp    400688 <_init+0x18>

0000000000400758 <mmap@plt>:
  400758:	ff 25 62 0f 20 00    	jmp    QWORD PTR [rip+0x200f62]        # 6016c0 <_GLOBAL_OFFSET_TABLE_+0x78>
  40075e:	68 0c 00 00 00       	push   0xc
  400763:	e9 20 ff ff ff       	jmp    400688 <_init+0x18>

Disassembly of section .text:

0000000000400770 <_start>:
_start():
  400770:	31 ed                	xor    ebp,ebp
  400772:	49 89 d1             	mov    r9,rdx
  400775:	5e                   	pop    rsi
  400776:	48 89 e2             	mov    rdx,rsp
  400779:	48 83 e4 f0          	and    rsp,0xfffffffffffffff0
  40077d:	50                   	push   rax
  40077e:	54                   	push   rsp
  40077f:	49 c7 c0 d0 0f 40 00 	mov    r8,0x400fd0
  400786:	48 c7 c1 40 0f 40 00 	mov    rcx,0x400f40
  40078d:	48 c7 c7 4f 0e 40 00 	mov    rdi,0x400e4f
  400794:	e8 5f ff ff ff       	call   4006f8 <__libc_start_main@plt>
  400799:	f4                   	hlt    
  40079a:	90                   	nop
  40079b:	90                   	nop

000000000040079c <call_gmon_start>:
call_gmon_start():
  40079c:	48 83 ec 08          	sub    rsp,0x8
  4007a0:	48 8b 05 99 0e 20 00 	mov    rax,QWORD PTR [rip+0x200e99]        # 601640 <_DYNAMIC+0x190>
  4007a7:	48 85 c0             	test   rax,rax
  4007aa:	74 02                	je     4007ae <call_gmon_start+0x12>
  4007ac:	ff d0                	call   rax
  4007ae:	48 83 c4 08          	add    rsp,0x8
  4007b2:	c3                   	ret    
  4007b3:	90                   	nop
  4007b4:	90                   	nop
  4007b5:	90                   	nop
  4007b6:	90                   	nop
  4007b7:	90                   	nop
  4007b8:	90                   	nop
  4007b9:	90                   	nop
  4007ba:	90                   	nop
  4007bb:	90                   	nop
  4007bc:	90                   	nop
  4007bd:	90                   	nop
  4007be:	90                   	nop
  4007bf:	90                   	nop

00000000004007c0 <__do_global_dtors_aux>:
__do_global_dtors_aux():
  4007c0:	55                   	push   rbp
  4007c1:	48 89 e5             	mov    rbp,rsp
  4007c4:	53                   	push   rbx
  4007c5:	48 83 ec 08          	sub    rsp,0x8
  4007c9:	80 3d d0 0f 20 00 00 	cmp    BYTE PTR [rip+0x200fd0],0x0        # 6017a0 <completed.5947>
  4007d0:	75 4b                	jne    40081d <__do_global_dtors_aux+0x5d>
  4007d2:	bb a0 14 60 00       	mov    ebx,0x6014a0
  4007d7:	48 8b 05 ca 0f 20 00 	mov    rax,QWORD PTR [rip+0x200fca]        # 6017a8 <dtor_idx.5949>
  4007de:	48 81 eb 98 14 60 00 	sub    rbx,0x601498
  4007e5:	48 c1 fb 03          	sar    rbx,0x3
  4007e9:	48 83 eb 01          	sub    rbx,0x1
  4007ed:	48 39 d8             	cmp    rax,rbx
  4007f0:	73 24                	jae    400816 <__do_global_dtors_aux+0x56>
  4007f2:	66 0f 1f 44 00 00    	nop    WORD PTR [rax+rax*1+0x0]
  4007f8:	48 83 c0 01          	add    rax,0x1
  4007fc:	48 89 05 a5 0f 20 00 	mov    QWORD PTR [rip+0x200fa5],rax        # 6017a8 <dtor_idx.5949>
  400803:	ff 14 c5 98 14 60 00 	call   QWORD PTR [rax*8+0x601498]
  40080a:	48 8b 05 97 0f 20 00 	mov    rax,QWORD PTR [rip+0x200f97]        # 6017a8 <dtor_idx.5949>
  400811:	48 39 d8             	cmp    rax,rbx
  400814:	72 e2                	jb     4007f8 <__do_global_dtors_aux+0x38>
  400816:	c6 05 83 0f 20 00 01 	mov    BYTE PTR [rip+0x200f83],0x1        # 6017a0 <completed.5947>
  40081d:	48 83 c4 08          	add    rsp,0x8
  400821:	5b                   	pop    rbx
  400822:	c9                   	leave  
  400823:	c3                   	ret    
  400824:	66 66 66 2e 0f 1f 84 	data32 data32 nop WORD PTR cs:[rax+rax*1+0x0]
  40082b:	00 00 00 00 00 

0000000000400830 <frame_dummy>:
frame_dummy():
  400830:	48 83 3d 70 0c 20 00 	cmp    QWORD PTR [rip+0x200c70],0x0        # 6014a8 <__JCR_END__>
  400837:	00 
  400838:	55                   	push   rbp
  400839:	48 89 e5             	mov    rbp,rsp
  40083c:	74 12                	je     400850 <frame_dummy+0x20>
  40083e:	b8 00 00 00 00       	mov    eax,0x0
  400843:	48 85 c0             	test   rax,rax
  400846:	74 08                	je     400850 <frame_dummy+0x20>
  400848:	bf a8 14 60 00       	mov    edi,0x6014a8
  40084d:	c9                   	leave  
  40084e:	ff e0                	jmp    rax
  400850:	c9                   	leave  
  400851:	c3                   	ret    
  400852:	90                   	nop
  400853:	90                   	nop

0000000000400854 <pflag_val>:
pflag_val():
/home/admin/src/driver/mydrv2/test/t_pageinfo.c:29
  400854:	55                   	push   rbp
  400855:	48 89 e5             	mov    rbp,rsp
  400858:	89 7d fc             	mov    DWORD PTR [rbp-0x4],edi
  40085b:	89 75 f8             	mov    DWORD PTR [rbp-0x8],esi
/home/admin/src/driver/mydrv2/test/t_pageinfo.c:41
  40085e:	8b 45 f8             	mov    eax,DWORD PTR [rbp-0x8]
  400861:	48 98                	cdqe   
  400863:	8b 55 fc             	mov    edx,DWORD PTR [rbp-0x4]
  400866:	48 63 d2             	movsxd rdx,edx
  400869:	48 01 d2             	add    rdx,rdx
  40086c:	48 8d 04 02          	lea    rax,[rdx+rax*1]
  400870:	48 8b 04 c5 20 17 60 	mov    rax,QWORD PTR [rax*8+0x601720]
  400877:	00 
/home/admin/src/driver/mydrv2/test/t_pageinfo.c:42
  400878:	c9                   	leave  
  400879:	c3                   	ret    

000000000040087a <parse_va>:
parse_va():
/home/admin/src/driver/mydrv2/test/t_pageinfo.c:45
  40087a:	55                   	push   rbp
  40087b:	48 89 e5             	mov    rbp,rsp
  40087e:	48 83 ec 20          	sub    rsp,0x20
  400882:	48 89 7d e8          	mov    QWORD PTR [rbp-0x18],rdi
/home/admin/src/driver/mydrv2/test/t_pageinfo.c:47
  400886:	48 8b 45 e8          	mov    rax,QWORD PTR [rbp-0x18]
  40088a:	8b 50 78             	mov    edx,DWORD PTR [rax+0x78]
  40088d:	48 8b 45 e8          	mov    rax,QWORD PTR [rbp-0x18]
  400891:	48 63 d2             	movsxd rdx,edx
  400894:	48 83 c2 08          	add    rdx,0x8
  400898:	48 8b 44 d0 08       	mov    rax,QWORD PTR [rax+rdx*8+0x8]
  40089d:	48 89 45 f0          	mov    QWORD PTR [rbp-0x10],rax
/home/admin/src/driver/mydrv2/test/t_pageinfo.c:49
  4008a1:	48 8b 45 e8          	mov    rax,QWORD PTR [rbp-0x18]
  4008a5:	8b 40 78             	mov    eax,DWORD PTR [rax+0x78]
  4008a8:	48 98                	cdqe   
  4008aa:	48 8b 14 c5 00 17 60 	mov    rdx,QWORD PTR [rax*8+0x601700]
  4008b1:	00 
  4008b2:	48 8b 45 e8          	mov    rax,QWORD PTR [rbp-0x18]
  4008b6:	48 8b 08             	mov    rcx,QWORD PTR [rax]
  4008b9:	b8 50 10 40 00       	mov    eax,0x401050
  4008be:	48 89 ce             	mov    rsi,rcx
  4008c1:	48 89 c7             	mov    rdi,rax
  4008c4:	b8 00 00 00 00       	mov    eax,0x0
  4008c9:	e8 ca fd ff ff       	call   400698 <printf@plt>
/home/admin/src/driver/mydrv2/test/t_pageinfo.c:50
  4008ce:	48 8b 45 e8          	mov    rax,QWORD PTR [rbp-0x18]
  4008d2:	8b 40 7c             	mov    eax,DWORD PTR [rax+0x7c]
  4008d5:	85 c0                	test   eax,eax
  4008d7:	74 0f                	je     4008e8 <parse_va+0x6e>
/home/admin/src/driver/mydrv2/test/t_pageinfo.c:51
  4008d9:	bf 71 10 40 00       	mov    edi,0x401071
  4008de:	e8 e5 fd ff ff       	call   4006c8 <puts@plt>
/home/admin/src/driver/mydrv2/test/t_pageinfo.c:52
  4008e3:	e9 7e 01 00 00       	jmp    400a66 <parse_va+0x1ec>
/home/admin/src/driver/mydrv2/test/t_pageinfo.c:55
  4008e8:	b8 7f 10 40 00       	mov    eax,0x40107f
  4008ed:	48 89 c7             	mov    rdi,rax
  4008f0:	b8 00 00 00 00       	mov    eax,0x0
  4008f5:	e8 9e fd ff ff       	call   400698 <printf@plt>
/home/admin/src/driver/mydrv2/test/t_pageinfo.c:57
  4008fa:	48 83 7d f0 00       	cmp    QWORD PTR [rbp-0x10],0x0
  4008ff:	0f 95 c0             	setne  al
  400902:	0f b6 c0             	movzx  eax,al
  400905:	89 c6                	mov    esi,eax
  400907:	bf 00 00 00 00       	mov    edi,0x0
  40090c:	e8 43 ff ff ff       	call   400854 <pflag_val>
  400911:	48 89 c7             	mov    rdi,rax
  400914:	b8 00 00 00 00       	mov    eax,0x0
  400919:	e8 7a fd ff ff       	call   400698 <printf@plt>
/home/admin/src/driver/mydrv2/test/t_pageinfo.c:64
  40091e:	48 83 7d f0 00       	cmp    QWORD PTR [rbp-0x10],0x0
  400923:	0f 84 3c 01 00 00    	je     400a65 <parse_va+0x1eb>
/home/admin/src/driver/mydrv2/test/t_pageinfo.c:68
  400929:	48 8b 45 f0          	mov    rax,QWORD PTR [rbp-0x10]
  40092d:	25 00 01 00 00       	and    eax,0x100
  400932:	48 85 c0             	test   rax,rax
  400935:	0f 95 c0             	setne  al
  400938:	0f b6 c0             	movzx  eax,al
  40093b:	89 c6                	mov    esi,eax
  40093d:	bf 01 00 00 00       	mov    edi,0x1
  400942:	e8 0d ff ff ff       	call   400854 <pflag_val>
  400947:	48 89 c7             	mov    rdi,rax
  40094a:	b8 00 00 00 00       	mov    eax,0x0
  40094f:	e8 44 fd ff ff       	call   400698 <printf@plt>
/home/admin/src/driver/mydrv2/test/t_pageinfo.c:69
  400954:	48 8b 45 f0          	mov    rax,QWORD PTR [rbp-0x10]
  400958:	83 e0 40             	and    eax,0x40
  40095b:	48 85 c0             	test   rax,rax
  40095e:	0f 95 c0             	setne  al
  400961:	0f b6 c0             	movzx  eax,al
  400964:	89 c6                	mov    esi,eax
  400966:	bf 02 00 00 00       	mov    edi,0x2
  40096b:	e8 e4 fe ff ff       	call   400854 <pflag_val>
  400970:	48 89 c7             	mov    rdi,rax
  400973:	b8 00 00 00 00       	mov    eax,0x0
  400978:	e8 1b fd ff ff       	call   400698 <printf@plt>
/home/admin/src/driver/mydrv2/test/t_pageinfo.c:70
  40097d:	48 8b 45 f0          	mov    rax,QWORD PTR [rbp-0x10]
  400981:	83 e0 20             	and    eax,0x20
  400984:	48 85 c0             	test   rax,rax
  400987:	0f 95 c0             	setne  al
  40098a:	0f b6 c0             	movzx  eax,al
  40098d:	89 c6                	mov    esi,eax
  40098f:	bf 03 00 00 00       	mov    edi,0x3
  400994:	e8 bb fe ff ff       	call   400854 <pflag_val>
  400999:	48 89 c7             	mov    rdi,rax
  40099c:	b8 00 00 00 00       	mov    eax,0x0
  4009a1:	e8 f2 fc ff ff       	call   400698 <printf@plt>
/home/admin/src/driver/mydrv2/test/t_pageinfo.c:71
  4009a6:	48 8b 45 f0          	mov    rax,QWORD PTR [rbp-0x10]
  4009aa:	83 e0 02             	and    eax,0x2
  4009ad:	48 85 c0             	test   rax,rax
  4009b0:	0f 95 c0             	setne  al
  4009b3:	0f b6 c0             	movzx  eax,al
  4009b6:	89 c6                	mov    esi,eax
  4009b8:	bf 04 00 00 00       	mov    edi,0x4
  4009bd:	e8 92 fe ff ff       	call   400854 <pflag_val>
  4009c2:	48 89 c7             	mov    rdi,rax
  4009c5:	b8 00 00 00 00       	mov    eax,0x0
  4009ca:	e8 c9 fc ff ff       	call   400698 <printf@plt>
/home/admin/src/driver/mydrv2/test/t_pageinfo.c:72
  4009cf:	48 8b 45 f0          	mov    rax,QWORD PTR [rbp-0x10]
  4009d3:	48 f7 d0             	not    rax
  4009d6:	48 c1 e8 3f          	shr    rax,0x3f
  4009da:	89 c6                	mov    esi,eax
  4009dc:	bf 05 00 00 00       	mov    edi,0x5
  4009e1:	e8 6e fe ff ff       	call   400854 <pflag_val>
  4009e6:	48 89 c7             	mov    rdi,rax
  4009e9:	b8 00 00 00 00       	mov    eax,0x0
  4009ee:	e8 a5 fc ff ff       	call   400698 <printf@plt>
/home/admin/src/driver/mydrv2/test/t_pageinfo.c:73
  4009f3:	48 8b 45 f0          	mov    rax,QWORD PTR [rbp-0x10]
  4009f7:	25 80 00 00 00       	and    eax,0x80
  4009fc:	48 85 c0             	test   rax,rax
  4009ff:	0f 95 c0             	setne  al
  400a02:	0f b6 c0             	movzx  eax,al
  400a05:	89 c6                	mov    esi,eax
  400a07:	bf 06 00 00 00       	mov    edi,0x6
  400a0c:	e8 43 fe ff ff       	call   400854 <pflag_val>
  400a11:	48 89 c7             	mov    rdi,rax
  400a14:	b8 00 00 00 00       	mov    eax,0x0
  400a19:	e8 7a fc ff ff       	call   400698 <printf@plt>
/home/admin/src/driver/mydrv2/test/t_pageinfo.c:75
  400a1e:	b8 83 10 40 00       	mov    eax,0x401083
  400a23:	48 8b 55 f0          	mov    rdx,QWORD PTR [rbp-0x10]
  400a27:	48 89 d6             	mov    rsi,rdx
  400a2a:	48 89 c7             	mov    rdi,rax
  400a2d:	b8 00 00 00 00       	mov    eax,0x0
  400a32:	e8 61 fc ff ff       	call   400698 <printf@plt>
/home/admin/src/driver/mydrv2/test/t_pageinfo.c:77
  400a37:	48 8b 45 e8          	mov    rax,QWORD PTR [rbp-0x18]
  400a3b:	8b 50 78             	mov    edx,DWORD PTR [rax+0x78]
  400a3e:	48 8b 45 e8          	mov    rax,QWORD PTR [rbp-0x18]
  400a42:	48 63 d2             	movsxd rdx,edx
  400a45:	48 83 c2 04          	add    rdx,0x4
  400a49:	48 8b 54 d0 08       	mov    rdx,QWORD PTR [rax+rdx*8+0x8]
  400a4e:	b8 97 10 40 00       	mov    eax,0x401097
  400a53:	48 89 d6             	mov    rsi,rdx
  400a56:	48 89 c7             	mov    rdi,rax
  400a59:	b8 00 00 00 00       	mov    eax,0x0
  400a5e:	e8 35 fc ff ff       	call   400698 <printf@plt>
  400a63:	eb 01                	jmp    400a66 <parse_va+0x1ec>
/home/admin/src/driver/mydrv2/test/t_pageinfo.c:65
  400a65:	90                   	nop
/home/admin/src/driver/mydrv2/test/t_pageinfo.c:78
  400a66:	c9                   	leave  
  400a67:	c3                   	ret    

0000000000400a68 <print_faults>:
print_faults():
/home/admin/src/driver/mydrv2/test/t_pageinfo.c:81
  400a68:	55                   	push   rbp
  400a69:	48 89 e5             	mov    rbp,rsp
  400a6c:	48 83 ec 10          	sub    rsp,0x10
  400a70:	48 89 7d f8          	mov    QWORD PTR [rbp-0x8],rdi
/home/admin/src/driver/mydrv2/test/t_pageinfo.c:82
  400a74:	bf b3 10 40 00       	mov    edi,0x4010b3
  400a79:	e8 4a fc ff ff       	call   4006c8 <puts@plt>
/home/admin/src/driver/mydrv2/test/t_pageinfo.c:84
  400a7e:	48 8b 45 f8          	mov    rax,QWORD PTR [rbp-0x8]
  400a82:	8b 90 84 00 00 00    	mov    edx,DWORD PTR [rax+0x84]
  400a88:	b8 cc 10 40 00       	mov    eax,0x4010cc
  400a8d:	89 d6                	mov    esi,edx
  400a8f:	48 89 c7             	mov    rdi,rax
  400a92:	b8 00 00 00 00       	mov    eax,0x0
  400a97:	e8 fc fb ff ff       	call   400698 <printf@plt>
/home/admin/src/driver/mydrv2/test/t_pageinfo.c:85
  400a9c:	48 8b 45 f8          	mov    rax,QWORD PTR [rbp-0x8]
  400aa0:	8b 90 80 00 00 00    	mov    edx,DWORD PTR [rax+0x80]
  400aa6:	b8 e4 10 40 00       	mov    eax,0x4010e4
  400aab:	89 d6                	mov    esi,edx
  400aad:	48 89 c7             	mov    rdi,rax
  400ab0:	b8 00 00 00 00       	mov    eax,0x0
  400ab5:	e8 de fb ff ff       	call   400698 <printf@plt>
/home/admin/src/driver/mydrv2/test/t_pageinfo.c:86
  400aba:	48 8b 45 f8          	mov    rax,QWORD PTR [rbp-0x8]
  400abe:	8b 90 8c 00 00 00    	mov    edx,DWORD PTR [rax+0x8c]
  400ac4:	b8 fc 10 40 00       	mov    eax,0x4010fc
  400ac9:	89 d6                	mov    esi,edx
  400acb:	48 89 c7             	mov    rdi,rax
  400ace:	b8 00 00 00 00       	mov    eax,0x0
  400ad3:	e8 c0 fb ff ff       	call   400698 <printf@plt>
/home/admin/src/driver/mydrv2/test/t_pageinfo.c:87
  400ad8:	48 8b 45 f8          	mov    rax,QWORD PTR [rbp-0x8]
  400adc:	8b 90 88 00 00 00    	mov    edx,DWORD PTR [rax+0x88]
  400ae2:	b8 14 11 40 00       	mov    eax,0x401114
  400ae7:	89 d6                	mov    esi,edx
  400ae9:	48 89 c7             	mov    rdi,rax
  400aec:	b8 00 00 00 00       	mov    eax,0x0
  400af1:	e8 a2 fb ff ff       	call   400698 <printf@plt>
/home/admin/src/driver/mydrv2/test/t_pageinfo.c:89
  400af6:	bf 2b 11 40 00       	mov    edi,0x40112b
  400afb:	e8 c8 fb ff ff       	call   4006c8 <puts@plt>
/home/admin/src/driver/mydrv2/test/t_pageinfo.c:90
  400b00:	c9                   	leave  
  400b01:	c3                   	ret    

0000000000400b02 <test_codeseg>:
test_codeseg():
/home/admin/src/driver/mydrv2/test/t_pageinfo.c:93
  400b02:	55                   	push   rbp
  400b03:	48 89 e5             	mov    rbp,rsp
  400b06:	48 81 ec a0 00 00 00 	sub    rsp,0xa0
  400b0d:	89 bd 6c ff ff ff    	mov    DWORD PTR [rbp-0x94],edi
/home/admin/src/driver/mydrv2/test/t_pageinfo.c:98
  400b13:	b8 7a 08 40 00       	mov    eax,0x40087a
  400b18:	48 89 85 70 ff ff ff 	mov    QWORD PTR [rbp-0x90],rax
/home/admin/src/driver/mydrv2/test/t_pageinfo.c:100
  400b1f:	48 8d 95 70 ff ff ff 	lea    rdx,[rbp-0x90]
  400b26:	8b 85 6c ff ff ff    	mov    eax,DWORD PTR [rbp-0x94]
  400b2c:	be 00 6b 00 00       	mov    esi,0x6b00
  400b31:	89 c7                	mov    edi,eax
  400b33:	b8 00 00 00 00       	mov    eax,0x0
  400b38:	e8 7b fb ff ff       	call   4006b8 <ioctl@plt>
  400b3d:	83 f8 ff             	cmp    eax,0xffffffffffffffff
  400b40:	75 35                	jne    400b77 <test_codeseg+0x75>
/home/admin/src/driver/mydrv2/test/t_pageinfo.c:101
  400b42:	b9 41 11 40 00       	mov    ecx,0x401141
  400b47:	48 8b 05 4a 0c 20 00 	mov    rax,QWORD PTR [rip+0x200c4a]        # 601798 <stderr@@GLIBC_2.2.5>
  400b4e:	ba 46 11 40 00       	mov    edx,0x401146
  400b53:	48 89 ce             	mov    rsi,rcx
  400b56:	48 89 c7             	mov    rdi,rax
  400b59:	b8 00 00 00 00       	mov    eax,0x0
  400b5e:	e8 d5 fb ff ff       	call   400738 <fprintf@plt>
  400b63:	bf 00 00 00 00       	mov    edi,0x0
  400b68:	e8 bb fb ff ff       	call   400728 <perror@plt>
  400b6d:	bf 01 00 00 00       	mov    edi,0x1
  400b72:	e8 61 fb ff ff       	call   4006d8 <exit@plt>
/home/admin/src/driver/mydrv2/test/t_pageinfo.c:103
  400b77:	bf 60 11 40 00       	mov    edi,0x401160
  400b7c:	e8 47 fb ff ff       	call   4006c8 <puts@plt>
/home/admin/src/driver/mydrv2/test/t_pageinfo.c:104
  400b81:	48 8d 85 70 ff ff ff 	lea    rax,[rbp-0x90]
  400b88:	48 89 c7             	mov    rdi,rax
  400b8b:	e8 ea fc ff ff       	call   40087a <parse_va>
/home/admin/src/driver/mydrv2/test/t_pageinfo.c:105
  400b90:	c9                   	leave  
  400b91:	c3                   	ret    

0000000000400b92 <test_dataseg>:
test_dataseg():
/home/admin/src/driver/mydrv2/test/t_pageinfo.c:108
  400b92:	55                   	push   rbp
  400b93:	48 89 e5             	mov    rbp,rsp
  400b96:	48 81 ec a0 00 00 00 	sub    rsp,0xa0
  400b9d:	89 bd 6c ff ff ff    	mov    DWORD PTR [rbp-0x94],edi
/home/admin/src/driver/mydrv2/test/t_pageinfo.c:111
  400ba3:	b8 b0 17 60 00       	mov    eax,0x6017b0
  400ba8:	48 89 85 70 ff ff ff 	mov    QWORD PTR [rbp-0x90],rax
/home/admin/src/driver/mydrv2/test/t_pageinfo.c:113
  400baf:	48 8d 95 70 ff ff ff 	lea    rdx,[rbp-0x90]
  400bb6:	8b 85 6c ff ff ff    	mov    eax,DWORD PTR [rbp-0x94]
  400bbc:	be 00 6b 00 00       	mov    esi,0x6b00
  400bc1:	89 c7                	mov    edi,eax
  400bc3:	b8 00 00 00 00       	mov    eax,0x0
  400bc8:	e8 eb fa ff ff       	call   4006b8 <ioctl@plt>
  400bcd:	83 f8 ff             	cmp    eax,0xffffffffffffffff
  400bd0:	75 35                	jne    400c07 <test_dataseg+0x75>
/home/admin/src/driver/mydrv2/test/t_pageinfo.c:114
  400bd2:	b9 41 11 40 00       	mov    ecx,0x401141
  400bd7:	48 8b 05 ba 0b 20 00 	mov    rax,QWORD PTR [rip+0x200bba]        # 601798 <stderr@@GLIBC_2.2.5>
  400bde:	ba 46 11 40 00       	mov    edx,0x401146
  400be3:	48 89 ce             	mov    rsi,rcx
  400be6:	48 89 c7             	mov    rdi,rax
  400be9:	b8 00 00 00 00       	mov    eax,0x0
  400bee:	e8 45 fb ff ff       	call   400738 <fprintf@plt>
  400bf3:	bf 00 00 00 00       	mov    edi,0x0
  400bf8:	e8 2b fb ff ff       	call   400728 <perror@plt>
  400bfd:	bf 01 00 00 00       	mov    edi,0x1
  400c02:	e8 d1 fa ff ff       	call   4006d8 <exit@plt>
/home/admin/src/driver/mydrv2/test/t_pageinfo.c:116
  400c07:	bf 82 11 40 00       	mov    edi,0x401182
  400c0c:	e8 b7 fa ff ff       	call   4006c8 <puts@plt>
/home/admin/src/driver/mydrv2/test/t_pageinfo.c:117
  400c11:	48 8d 85 70 ff ff ff 	lea    rax,[rbp-0x90]
  400c18:	48 89 c7             	mov    rdi,rax
  400c1b:	e8 5a fc ff ff       	call   40087a <parse_va>
/home/admin/src/driver/mydrv2/test/t_pageinfo.c:118
  400c20:	48 8d 85 70 ff ff ff 	lea    rax,[rbp-0x90]
  400c27:	48 89 c7             	mov    rdi,rax
  400c2a:	e8 39 fe ff ff       	call   400a68 <print_faults>
/home/admin/src/driver/mydrv2/test/t_pageinfo.c:119
  400c2f:	c9                   	leave  
  400c30:	c3                   	ret    

0000000000400c31 <touch_mem>:
touch_mem():
/home/admin/src/driver/mydrv2/test/t_pageinfo.c:122
  400c31:	55                   	push   rbp
  400c32:	48 89 e5             	mov    rbp,rsp
  400c35:	48 81 ec a0 00 00 00 	sub    rsp,0xa0
  400c3c:	89 bd 6c ff ff ff    	mov    DWORD PTR [rbp-0x94],edi
  400c42:	48 89 b5 60 ff ff ff 	mov    QWORD PTR [rbp-0xa0],rsi
/home/admin/src/driver/mydrv2/test/t_pageinfo.c:127
  400c49:	48 8b 85 60 ff ff ff 	mov    rax,QWORD PTR [rbp-0xa0]
  400c50:	48 89 85 70 ff ff ff 	mov    QWORD PTR [rbp-0x90],rax
/home/admin/src/driver/mydrv2/test/t_pageinfo.c:129
  400c57:	48 8d 95 70 ff ff ff 	lea    rdx,[rbp-0x90]
  400c5e:	8b 85 6c ff ff ff    	mov    eax,DWORD PTR [rbp-0x94]
  400c64:	be 00 6b 00 00       	mov    esi,0x6b00
  400c69:	89 c7                	mov    edi,eax
  400c6b:	b8 00 00 00 00       	mov    eax,0x0
  400c70:	e8 43 fa ff ff       	call   4006b8 <ioctl@plt>
  400c75:	83 f8 ff             	cmp    eax,0xffffffffffffffff
  400c78:	75 35                	jne    400caf <touch_mem+0x7e>
/home/admin/src/driver/mydrv2/test/t_pageinfo.c:130
  400c7a:	b9 41 11 40 00       	mov    ecx,0x401141
  400c7f:	48 8b 05 12 0b 20 00 	mov    rax,QWORD PTR [rip+0x200b12]        # 601798 <stderr@@GLIBC_2.2.5>
  400c86:	ba 46 11 40 00       	mov    edx,0x401146
  400c8b:	48 89 ce             	mov    rsi,rcx
  400c8e:	48 89 c7             	mov    rdi,rax
  400c91:	b8 00 00 00 00       	mov    eax,0x0
  400c96:	e8 9d fa ff ff       	call   400738 <fprintf@plt>
  400c9b:	bf 00 00 00 00       	mov    edi,0x0
  400ca0:	e8 83 fa ff ff       	call   400728 <perror@plt>
  400ca5:	bf 01 00 00 00       	mov    edi,0x1
  400caa:	e8 29 fa ff ff       	call   4006d8 <exit@plt>
/home/admin/src/driver/mydrv2/test/t_pageinfo.c:132
  400caf:	bf a0 11 40 00       	mov    edi,0x4011a0
  400cb4:	e8 0f fa ff ff       	call   4006c8 <puts@plt>
/home/admin/src/driver/mydrv2/test/t_pageinfo.c:133
  400cb9:	48 8d 85 70 ff ff ff 	lea    rax,[rbp-0x90]
  400cc0:	48 89 c7             	mov    rdi,rax
  400cc3:	e8 b2 fb ff ff       	call   40087a <parse_va>
/home/admin/src/driver/mydrv2/test/t_pageinfo.c:134
  400cc8:	48 8d 85 70 ff ff ff 	lea    rax,[rbp-0x90]
  400ccf:	48 89 c7             	mov    rdi,rax
  400cd2:	e8 91 fd ff ff       	call   400a68 <print_faults>
/home/admin/src/driver/mydrv2/test/t_pageinfo.c:139
  400cd7:	48 8b 95 60 ff ff ff 	mov    rdx,QWORD PTR [rbp-0xa0]
  400cde:	b0 41                	mov    al,0x41
  400ce0:	88 02                	mov    BYTE PTR [rdx],al
/home/admin/src/driver/mydrv2/test/t_pageinfo.c:145
  400ce2:	48 8b 85 60 ff ff ff 	mov    rax,QWORD PTR [rbp-0xa0]
  400ce9:	0f b6 00             	movzx  eax,BYTE PTR [rax]
  400cec:	0f be c8             	movsx  ecx,al
  400cef:	b8 c0 11 40 00       	mov    eax,0x4011c0
  400cf4:	48 8b 95 60 ff ff ff 	mov    rdx,QWORD PTR [rbp-0xa0]
  400cfb:	89 ce                	mov    esi,ecx
  400cfd:	48 89 c7             	mov    rdi,rax
  400d00:	b8 00 00 00 00       	mov    eax,0x0
  400d05:	e8 8e f9 ff ff       	call   400698 <printf@plt>
/home/admin/src/driver/mydrv2/test/t_pageinfo.c:147
  400d0a:	48 8d 95 70 ff ff ff 	lea    rdx,[rbp-0x90]
  400d11:	8b 85 6c ff ff ff    	mov    eax,DWORD PTR [rbp-0x94]
  400d17:	be 00 6b 00 00       	mov    esi,0x6b00
  400d1c:	89 c7                	mov    edi,eax
  400d1e:	b8 00 00 00 00       	mov    eax,0x0
  400d23:	e8 90 f9 ff ff       	call   4006b8 <ioctl@plt>
  400d28:	83 f8 ff             	cmp    eax,0xffffffffffffffff
  400d2b:	75 35                	jne    400d62 <touch_mem+0x131>
/home/admin/src/driver/mydrv2/test/t_pageinfo.c:148
  400d2d:	b9 41 11 40 00       	mov    ecx,0x401141
  400d32:	48 8b 05 5f 0a 20 00 	mov    rax,QWORD PTR [rip+0x200a5f]        # 601798 <stderr@@GLIBC_2.2.5>
  400d39:	ba 46 11 40 00       	mov    edx,0x401146
  400d3e:	48 89 ce             	mov    rsi,rcx
  400d41:	48 89 c7             	mov    rdi,rax
  400d44:	b8 00 00 00 00       	mov    eax,0x0
  400d49:	e8 ea f9 ff ff       	call   400738 <fprintf@plt>
  400d4e:	bf 00 00 00 00       	mov    edi,0x0
  400d53:	e8 d0 f9 ff ff       	call   400728 <perror@plt>
  400d58:	bf 01 00 00 00       	mov    edi,0x1
  400d5d:	e8 76 f9 ff ff       	call   4006d8 <exit@plt>
/home/admin/src/driver/mydrv2/test/t_pageinfo.c:150
  400d62:	bf e0 11 40 00       	mov    edi,0x4011e0
  400d67:	e8 5c f9 ff ff       	call   4006c8 <puts@plt>
/home/admin/src/driver/mydrv2/test/t_pageinfo.c:151
  400d6c:	48 8d 85 70 ff ff ff 	lea    rax,[rbp-0x90]
  400d73:	48 89 c7             	mov    rdi,rax
  400d76:	e8 ff fa ff ff       	call   40087a <parse_va>
/home/admin/src/driver/mydrv2/test/t_pageinfo.c:152
  400d7b:	48 8d 85 70 ff ff ff 	lea    rax,[rbp-0x90]
  400d82:	48 89 c7             	mov    rdi,rax
  400d85:	e8 de fc ff ff       	call   400a68 <print_faults>
/home/admin/src/driver/mydrv2/test/t_pageinfo.c:153
  400d8a:	c9                   	leave  
  400d8b:	c3                   	ret    

0000000000400d8c <test_stackseg>:
test_stackseg():
/home/admin/src/driver/mydrv2/test/t_pageinfo.c:156
  400d8c:	55                   	push   rbp
  400d8d:	48 89 e5             	mov    rbp,rsp
  400d90:	48 83 ec 20          	sub    rsp,0x20
  400d94:	89 7d ec             	mov    DWORD PTR [rbp-0x14],edi
  400d97:	89 75 e8             	mov    DWORD PTR [rbp-0x18],esi
/home/admin/src/driver/mydrv2/test/t_pageinfo.c:160
  400d9a:	e8 69 f9 ff ff       	call   400708 <getpagesize@plt>
  400d9f:	01 c0                	add    eax,eax
  400da1:	89 45 f4             	mov    DWORD PTR [rbp-0xc],eax
/home/admin/src/driver/mydrv2/test/t_pageinfo.c:161
  400da4:	8b 45 f4             	mov    eax,DWORD PTR [rbp-0xc]
  400da7:	48 98                	cdqe   
  400da9:	48 83 c0 0f          	add    rax,0xf
  400dad:	48 83 c0 0f          	add    rax,0xf
  400db1:	48 c1 e8 04          	shr    rax,0x4
  400db5:	48 c1 e0 04          	shl    rax,0x4
  400db9:	48 29 c4             	sub    rsp,rax
  400dbc:	48 89 e0             	mov    rax,rsp
  400dbf:	48 83 c0 0f          	add    rax,0xf
  400dc3:	48 c1 e8 04          	shr    rax,0x4
  400dc7:	48 c1 e0 04          	shl    rax,0x4
  400dcb:	48 89 45 f8          	mov    QWORD PTR [rbp-0x8],rax
/home/admin/src/driver/mydrv2/test/t_pageinfo.c:163
  400dcf:	bf 08 12 40 00       	mov    edi,0x401208
  400dd4:	e8 ef f8 ff ff       	call   4006c8 <puts@plt>
/home/admin/src/driver/mydrv2/test/t_pageinfo.c:165
  400dd9:	48 8d 55 f4          	lea    rdx,[rbp-0xc]
  400ddd:	8b 45 ec             	mov    eax,DWORD PTR [rbp-0x14]
  400de0:	48 89 d6             	mov    rsi,rdx
  400de3:	89 c7                	mov    edi,eax
  400de5:	e8 47 fe ff ff       	call   400c31 <touch_mem>
/home/admin/src/driver/mydrv2/test/t_pageinfo.c:166
  400dea:	c9                   	leave  
  400deb:	c3                   	ret    

0000000000400dec <test_mmap>:
test_mmap():
/home/admin/src/driver/mydrv2/test/t_pageinfo.c:169
  400dec:	55                   	push   rbp
  400ded:	48 89 e5             	mov    rbp,rsp
  400df0:	48 83 ec 20          	sub    rsp,0x20
  400df4:	89 7d ec             	mov    DWORD PTR [rbp-0x14],edi
  400df7:	89 75 e8             	mov    DWORD PTR [rbp-0x18],esi
/home/admin/src/driver/mydrv2/test/t_pageinfo.c:172
  400dfa:	e8 09 f9 ff ff       	call   400708 <getpagesize@plt>
  400dff:	01 c0                	add    eax,eax
  400e01:	48 98                	cdqe   
  400e03:	41 b9 00 00 00 00    	mov    r9d,0x0
  400e09:	41 b8 ff ff ff ff    	mov    r8d,0xffffffff
  400e0f:	b9 02 00 00 00       	mov    ecx,0x2
  400e14:	ba 03 00 00 00       	mov    edx,0x3
  400e19:	48 89 c6             	mov    rsi,rax
  400e1c:	bf 00 00 00 00       	mov    edi,0x0
  400e21:	e8 32 f9 ff ff       	call   400758 <mmap@plt>
  400e26:	48 89 45 f8          	mov    QWORD PTR [rbp-0x8],rax
/home/admin/src/driver/mydrv2/test/t_pageinfo.c:174
  400e2a:	bf 08 12 40 00       	mov    edi,0x401208
  400e2f:	e8 94 f8 ff ff       	call   4006c8 <puts@plt>
/home/admin/src/driver/mydrv2/test/t_pageinfo.c:176
  400e34:	8b 45 e8             	mov    eax,DWORD PTR [rbp-0x18]
  400e37:	48 98                	cdqe   
  400e39:	48 89 c2             	mov    rdx,rax
  400e3c:	48 03 55 f8          	add    rdx,QWORD PTR [rbp-0x8]
  400e40:	8b 45 ec             	mov    eax,DWORD PTR [rbp-0x14]
  400e43:	48 89 d6             	mov    rsi,rdx
  400e46:	89 c7                	mov    edi,eax
  400e48:	e8 e4 fd ff ff       	call   400c31 <touch_mem>
/home/admin/src/driver/mydrv2/test/t_pageinfo.c:177
  400e4d:	c9                   	leave  
  400e4e:	c3                   	ret    

0000000000400e4f <main>:
main():
/home/admin/src/driver/mydrv2/test/t_pageinfo.c:180
  400e4f:	55                   	push   rbp
  400e50:	48 89 e5             	mov    rbp,rsp
  400e53:	48 83 ec 20          	sub    rsp,0x20
  400e57:	89 7d ec             	mov    DWORD PTR [rbp-0x14],edi
  400e5a:	48 89 75 e0          	mov    QWORD PTR [rbp-0x20],rsi
/home/admin/src/driver/mydrv2/test/t_pageinfo.c:184
  400e5e:	be 02 00 00 00       	mov    esi,0x2
  400e63:	bf 2b 12 40 00       	mov    edi,0x40122b
  400e68:	b8 00 00 00 00       	mov    eax,0x0
  400e6d:	e8 d6 f8 ff ff       	call   400748 <open@plt>
  400e72:	89 45 fc             	mov    DWORD PTR [rbp-0x4],eax
  400e75:	83 7d fc ff          	cmp    DWORD PTR [rbp-0x4],0xffffffffffffffff
  400e79:	0f 85 83 00 00 00    	jne    400f02 <main+0xb3>
/home/admin/src/driver/mydrv2/test/t_pageinfo.c:185
  400e7f:	b9 41 11 40 00       	mov    ecx,0x401141
  400e84:	48 8b 05 0d 09 20 00 	mov    rax,QWORD PTR [rip+0x20090d]        # 601798 <stderr@@GLIBC_2.2.5>
  400e8b:	ba 39 12 40 00       	mov    edx,0x401239
  400e90:	48 89 ce             	mov    rsi,rcx
  400e93:	48 89 c7             	mov    rdi,rax
  400e96:	b8 00 00 00 00       	mov    eax,0x0
  400e9b:	e8 98 f8 ff ff       	call   400738 <fprintf@plt>
  400ea0:	bf 00 00 00 00       	mov    edi,0x0
  400ea5:	e8 7e f8 ff ff       	call   400728 <perror@plt>
  400eaa:	bf 01 00 00 00       	mov    edi,0x1
  400eaf:	e8 24 f8 ff ff       	call   4006d8 <exit@plt>
/home/admin/src/driver/mydrv2/test/t_pageinfo.c:188
  400eb4:	8b 45 f8             	mov    eax,DWORD PTR [rbp-0x8]
  400eb7:	83 f8 64             	cmp    eax,0x64
  400eba:	74 0c                	je     400ec8 <main+0x79>
  400ebc:	83 f8 73             	cmp    eax,0x73
  400ebf:	74 1f                	je     400ee0 <main+0x91>
  400ec1:	83 f8 63             	cmp    eax,0x63
  400ec4:	74 0e                	je     400ed4 <main+0x85>
  400ec6:	eb 3a                	jmp    400f02 <main+0xb3>
/home/admin/src/driver/mydrv2/test/t_pageinfo.c:190
  400ec8:	8b 45 fc             	mov    eax,DWORD PTR [rbp-0x4]
  400ecb:	89 c7                	mov    edi,eax
  400ecd:	e8 c0 fc ff ff       	call   400b92 <test_dataseg>
/home/admin/src/driver/mydrv2/test/t_pageinfo.c:191
  400ed2:	eb 2e                	jmp    400f02 <main+0xb3>
/home/admin/src/driver/mydrv2/test/t_pageinfo.c:194
  400ed4:	8b 45 fc             	mov    eax,DWORD PTR [rbp-0x4]
  400ed7:	89 c7                	mov    edi,eax
  400ed9:	e8 24 fc ff ff       	call   400b02 <test_codeseg>
/home/admin/src/driver/mydrv2/test/t_pageinfo.c:195
  400ede:	eb 22                	jmp    400f02 <main+0xb3>
/home/admin/src/driver/mydrv2/test/t_pageinfo.c:198
  400ee0:	48 8b 05 a9 08 20 00 	mov    rax,QWORD PTR [rip+0x2008a9]        # 601790 <__bss_start>
  400ee7:	48 89 c7             	mov    rdi,rax
  400eea:	e8 29 f8 ff ff       	call   400718 <atoi@plt>
  400eef:	89 45 f4             	mov    DWORD PTR [rbp-0xc],eax
/home/admin/src/driver/mydrv2/test/t_pageinfo.c:199
  400ef2:	8b 55 f4             	mov    edx,DWORD PTR [rbp-0xc]
  400ef5:	8b 45 fc             	mov    eax,DWORD PTR [rbp-0x4]
  400ef8:	89 d6                	mov    esi,edx
  400efa:	89 c7                	mov    edi,eax
  400efc:	e8 8b fe ff ff       	call   400d8c <test_stackseg>
/home/admin/src/driver/mydrv2/test/t_pageinfo.c:200
  400f01:	90                   	nop
/home/admin/src/driver/mydrv2/test/t_pageinfo.c:187
  400f02:	48 8b 4d e0          	mov    rcx,QWORD PTR [rbp-0x20]
  400f06:	8b 45 ec             	mov    eax,DWORD PTR [rbp-0x14]
  400f09:	ba 47 12 40 00       	mov    edx,0x401247
  400f0e:	48 89 ce             	mov    rsi,rcx
  400f11:	89 c7                	mov    edi,eax
  400f13:	e8 d0 f7 ff ff       	call   4006e8 <getopt@plt>
  400f18:	89 45 f8             	mov    DWORD PTR [rbp-0x8],eax
  400f1b:	83 7d f8 ff          	cmp    DWORD PTR [rbp-0x8],0xffffffffffffffff
  400f1f:	75 93                	jne    400eb4 <main+0x65>
/home/admin/src/driver/mydrv2/test/t_pageinfo.c:205
  400f21:	8b 45 fc             	mov    eax,DWORD PTR [rbp-0x4]
  400f24:	89 c7                	mov    edi,eax
  400f26:	e8 7d f7 ff ff       	call   4006a8 <close@plt>
/home/admin/src/driver/mydrv2/test/t_pageinfo.c:207
  400f2b:	b8 00 00 00 00       	mov    eax,0x0
/home/admin/src/driver/mydrv2/test/t_pageinfo.c:208
  400f30:	c9                   	leave  
  400f31:	c3                   	ret    
  400f32:	90                   	nop
  400f33:	90                   	nop
  400f34:	90                   	nop
  400f35:	90                   	nop
  400f36:	90                   	nop
  400f37:	90                   	nop
  400f38:	90                   	nop
  400f39:	90                   	nop
  400f3a:	90                   	nop
  400f3b:	90                   	nop
  400f3c:	90                   	nop
  400f3d:	90                   	nop
  400f3e:	90                   	nop
  400f3f:	90                   	nop

0000000000400f40 <__libc_csu_init>:
__libc_csu_init():
  400f40:	48 89 6c 24 d8       	mov    QWORD PTR [rsp-0x28],rbp
  400f45:	4c 89 64 24 e0       	mov    QWORD PTR [rsp-0x20],r12
  400f4a:	48 8d 2d 33 05 20 00 	lea    rbp,[rip+0x200533]        # 601484 <__init_array_end>
  400f51:	4c 8d 25 2c 05 20 00 	lea    r12,[rip+0x20052c]        # 601484 <__init_array_end>
  400f58:	4c 89 6c 24 e8       	mov    QWORD PTR [rsp-0x18],r13
  400f5d:	4c 89 74 24 f0       	mov    QWORD PTR [rsp-0x10],r14
  400f62:	4c 89 7c 24 f8       	mov    QWORD PTR [rsp-0x8],r15
  400f67:	48 89 5c 24 d0       	mov    QWORD PTR [rsp-0x30],rbx
  400f6c:	48 83 ec 38          	sub    rsp,0x38
  400f70:	4c 29 e5             	sub    rbp,r12
  400f73:	41 89 fd             	mov    r13d,edi
  400f76:	49 89 f6             	mov    r14,rsi
  400f79:	48 c1 fd 03          	sar    rbp,0x3
  400f7d:	49 89 d7             	mov    r15,rdx
  400f80:	e8 eb f6 ff ff       	call   400670 <_init>
  400f85:	48 85 ed             	test   rbp,rbp
  400f88:	74 1c                	je     400fa6 <__libc_csu_init+0x66>
  400f8a:	31 db                	xor    ebx,ebx
  400f8c:	0f 1f 40 00          	nop    DWORD PTR [rax+0x0]
  400f90:	4c 89 fa             	mov    rdx,r15
  400f93:	4c 89 f6             	mov    rsi,r14
  400f96:	44 89 ef             	mov    edi,r13d
  400f99:	41 ff 14 dc          	call   QWORD PTR [r12+rbx*8]
  400f9d:	48 83 c3 01          	add    rbx,0x1
  400fa1:	48 39 eb             	cmp    rbx,rbp
  400fa4:	72 ea                	jb     400f90 <__libc_csu_init+0x50>
  400fa6:	48 8b 5c 24 08       	mov    rbx,QWORD PTR [rsp+0x8]
  400fab:	48 8b 6c 24 10       	mov    rbp,QWORD PTR [rsp+0x10]
  400fb0:	4c 8b 64 24 18       	mov    r12,QWORD PTR [rsp+0x18]
  400fb5:	4c 8b 6c 24 20       	mov    r13,QWORD PTR [rsp+0x20]
  400fba:	4c 8b 74 24 28       	mov    r14,QWORD PTR [rsp+0x28]
  400fbf:	4c 8b 7c 24 30       	mov    r15,QWORD PTR [rsp+0x30]
  400fc4:	48 83 c4 38          	add    rsp,0x38
  400fc8:	c3                   	ret    
  400fc9:	0f 1f 80 00 00 00 00 	nop    DWORD PTR [rax+0x0]

0000000000400fd0 <__libc_csu_fini>:
__libc_csu_fini():
  400fd0:	f3 c3                	repz ret 
  400fd2:	90                   	nop
  400fd3:	90                   	nop
  400fd4:	90                   	nop
  400fd5:	90                   	nop
  400fd6:	90                   	nop
  400fd7:	90                   	nop
  400fd8:	90                   	nop
  400fd9:	90                   	nop
  400fda:	90                   	nop
  400fdb:	90                   	nop
  400fdc:	90                   	nop
  400fdd:	90                   	nop
  400fde:	90                   	nop
  400fdf:	90                   	nop

0000000000400fe0 <__do_global_ctors_aux>:
__do_global_ctors_aux():
  400fe0:	55                   	push   rbp
  400fe1:	48 89 e5             	mov    rbp,rsp
  400fe4:	53                   	push   rbx
  400fe5:	48 83 ec 08          	sub    rsp,0x8
  400fe9:	48 8b 05 98 04 20 00 	mov    rax,QWORD PTR [rip+0x200498]        # 601488 <__CTOR_LIST__>
  400ff0:	48 83 f8 ff          	cmp    rax,0xffffffffffffffff
  400ff4:	74 19                	je     40100f <__do_global_ctors_aux+0x2f>
  400ff6:	bb 88 14 60 00       	mov    ebx,0x601488
  400ffb:	0f 1f 44 00 00       	nop    DWORD PTR [rax+rax*1+0x0]
  401000:	48 83 eb 08          	sub    rbx,0x8
  401004:	ff d0                	call   rax
  401006:	48 8b 03             	mov    rax,QWORD PTR [rbx]
  401009:	48 83 f8 ff          	cmp    rax,0xffffffffffffffff
  40100d:	75 f1                	jne    401000 <__do_global_ctors_aux+0x20>
  40100f:	48 83 c4 08          	add    rsp,0x8
  401013:	5b                   	pop    rbx
  401014:	c9                   	leave  
  401015:	c3                   	ret    
  401016:	90                   	nop
  401017:	90                   	nop

Disassembly of section .fini:

0000000000401018 <_fini>:
_fini():
  401018:	48 83 ec 08          	sub    rsp,0x8
  40101c:	e8 9f f7 ff ff       	call   4007c0 <__do_global_dtors_aux>
  401021:	48 83 c4 08          	add    rsp,0x8
  401025:	c3                   	ret    
